
firmware/firmware.elf:     file format elf32-littleriscv


Disassembly of section .vectors:

00000000 <__irq_base_vector>:
.set test_ret_val, 0x20000000

.section .vectors, "ax"
.option norvc
vector_table:
	j sw_irq_handler /* ecall, illegal insn and data prohibited */
   0:	1940006f          	jal	x0,194 <sw_irq_handler>
	j __no_irq_handler
   4:	1800006f          	jal	x0,184 <__mem_start>
	j __no_irq_handler
   8:	17c0006f          	jal	x0,184 <__mem_start>
	j __no_irq_handler
   c:	1780006f          	jal	x0,184 <__mem_start>
	j __no_irq_handler
  10:	1740006f          	jal	x0,184 <__mem_start>
	j __no_irq_handler
  14:	1700006f          	jal	x0,184 <__mem_start>
	j __no_irq_handler
  18:	16c0006f          	jal	x0,184 <__mem_start>

0000001c <vector_table_timer>:
vector_table_timer:
	j timer_irq_handler
  1c:	1fc0006f          	jal	x0,218 <timer_irq_handler>
	j __no_irq_handler
  20:	1640006f          	jal	x0,184 <__mem_start>
	j __no_irq_handler
  24:	1600006f          	jal	x0,184 <__mem_start>
	j __no_irq_handler
  28:	15c0006f          	jal	x0,184 <__mem_start>
	j __no_irq_handler
  2c:	1580006f          	jal	x0,184 <__mem_start>
	j __no_irq_handler
  30:	1540006f          	jal	x0,184 <__mem_start>
	j __no_irq_handler
  34:	1500006f          	jal	x0,184 <__mem_start>
	j __no_irq_handler
  38:	14c0006f          	jal	x0,184 <__mem_start>
	j __no_irq_handler
  3c:	1480006f          	jal	x0,184 <__mem_start>
	j __no_irq_handler
  40:	1440006f          	jal	x0,184 <__mem_start>
	j __no_irq_handler
  44:	1400006f          	jal	x0,184 <__mem_start>
	j __no_irq_handler
  48:	13c0006f          	jal	x0,184 <__mem_start>
	j __no_irq_handler
  4c:	1380006f          	jal	x0,184 <__mem_start>
	j __no_irq_handler
  50:	1340006f          	jal	x0,184 <__mem_start>
	j __no_irq_handler
  54:	1300006f          	jal	x0,184 <__mem_start>
	j __no_irq_handler
  58:	12c0006f          	jal	x0,184 <__mem_start>
	j __no_irq_handler
  5c:	1280006f          	jal	x0,184 <__mem_start>
	j __no_irq_handler
  60:	1240006f          	jal	x0,184 <__mem_start>
	j __no_irq_handler
  64:	1200006f          	jal	x0,184 <__mem_start>
	j __no_irq_handler
  68:	11c0006f          	jal	x0,184 <__mem_start>
	j __no_irq_handler
  6c:	1180006f          	jal	x0,184 <__mem_start>
	j __no_irq_handler
  70:	1140006f          	jal	x0,184 <__mem_start>
	j __no_irq_handler
  74:	1100006f          	jal	x0,184 <__mem_start>
	j __no_irq_handler
  78:	10c0006f          	jal	x0,184 <__mem_start>
	j __no_irq_handler
  7c:	1080006f          	jal	x0,184 <__mem_start>
	j __no_irq_handler
  80:	1040006f          	jal	x0,184 <__mem_start>
	j __no_irq_handler
  84:	1000006f          	jal	x0,184 <__mem_start>
	j __no_irq_handler
  88:	0fc0006f          	jal	x0,184 <__mem_start>
	j __no_irq_handler
  8c:	0f80006f          	jal	x0,184 <__mem_start>
	j __no_irq_handler
  90:	0f40006f          	jal	x0,184 <__mem_start>
	j __no_irq_handler
  94:	0f00006f          	jal	x0,184 <__mem_start>
	j __no_irq_handler
  98:	0ec0006f          	jal	x0,184 <__mem_start>
	j __no_irq_handler
  9c:	0e80006f          	jal	x0,184 <__mem_start>
	j __no_irq_handler
  a0:	0e40006f          	jal	x0,184 <__mem_start>
	j __no_irq_handler
  a4:	0e00006f          	jal	x0,184 <__mem_start>
	j __no_irq_handler
  a8:	0dc0006f          	jal	x0,184 <__mem_start>
	j __no_irq_handler
  ac:	0d80006f          	jal	x0,184 <__mem_start>
	j __no_irq_handler
  b0:	0d40006f          	jal	x0,184 <__mem_start>
	j __no_irq_handler
  b4:	0d00006f          	jal	x0,184 <__mem_start>
	j __no_irq_handler
  b8:	0cc0006f          	jal	x0,184 <__mem_start>
	j __no_irq_handler
  bc:	0c80006f          	jal	x0,184 <__mem_start>
	j __no_irq_handler
  c0:	0c40006f          	jal	x0,184 <__mem_start>
	j __no_irq_handler
  c4:	0c00006f          	jal	x0,184 <__mem_start>
	j __no_irq_handler
  c8:	0bc0006f          	jal	x0,184 <__mem_start>
	j __no_irq_handler
  cc:	0b80006f          	jal	x0,184 <__mem_start>
	j __no_irq_handler
  d0:	0b40006f          	jal	x0,184 <__mem_start>
	j __no_irq_handler
  d4:	0b00006f          	jal	x0,184 <__mem_start>
	j __no_irq_handler
  d8:	0ac0006f          	jal	x0,184 <__mem_start>
	j __no_irq_handler
  dc:	0a80006f          	jal	x0,184 <__mem_start>
	j __no_irq_handler
  e0:	0a40006f          	jal	x0,184 <__mem_start>
	j __no_irq_handler
  e4:	0a00006f          	jal	x0,184 <__mem_start>
	j __no_irq_handler
  e8:	09c0006f          	jal	x0,184 <__mem_start>
	j __no_irq_handler
  ec:	0980006f          	jal	x0,184 <__mem_start>
	j __no_irq_handler
  f0:	0940006f          	jal	x0,184 <__mem_start>
	j __no_irq_handler
  f4:	0900006f          	jal	x0,184 <__mem_start>
	j __no_irq_handler
  f8:	08c0006f          	jal	x0,184 <__mem_start>
	j __no_irq_handler
  fc:	0880006f          	jal	x0,184 <__mem_start>

Disassembly of section .start:

00000100 <__boot_addr-0x80>:
	...

00000180 <__boot_addr>:
	j __no_irq_handler
	j vector_table_timer


.section .start, "ax"
	j start
 180:	0b40006f          	jal	x0,234 <start>

Disassembly of section .text:

00000184 <__mem_start>:
.global print_str


/* exception handling */
__no_irq_handler:
	la a0, no_exception_handler_msg
 184:	00001517          	auipc	x10,0x1
 188:	86d50513          	addi	x10,x10,-1939 # 9f1 <no_exception_handler_msg>
	jal ra, print_str
 18c:	22c000ef          	jal	x1,3b8 <print_str>
	j __no_irq_handler
 190:	ff5ff06f          	jal	x0,184 <__mem_start>

00000194 <sw_irq_handler>:


sw_irq_handler:
	csrr t0, mcause
 194:	342022f3          	csrrs	x5,mcause,x0
	slli t0, t0, 1  /* shift off the high bit */
 198:	00129293          	slli	x5,x5,0x1
	srli t0, t0, 1
 19c:	0012d293          	srli	x5,x5,0x1
	li t1, 2
 1a0:	00200313          	addi	x6,x0,2
	beq t0, t1, handle_illegal_insn
 1a4:	02628663          	beq	x5,x6,1d0 <handle_illegal_insn>
	li t1, 11
 1a8:	00b00313          	addi	x6,x0,11
	beq t0, t1, handle_ecall
 1ac:	00628863          	beq	x5,x6,1bc <handle_ecall>
	li t1, 3
 1b0:	00300313          	addi	x6,x0,3
	beq t0, t1, handle_ebreak
 1b4:	00628663          	beq	x5,x6,1c0 <handle_ebreak>
	j handle_unknown
 1b8:	0280006f          	jal	x0,1e0 <handle_unknown>

000001bc <handle_ecall>:

handle_ecall:
	/* la a0, ecall_msg */
	/* jal ra, print_str */ /* this is too verbose for now */
	j fail_test
 1bc:	03c0006f          	jal	x0,1f8 <fail_test>

000001c0 <handle_ebreak>:

handle_ebreak:
	la a0, ebreak_msg
 1c0:	00000517          	auipc	x10,0x0
 1c4:	7ec50513          	addi	x10,x10,2028 # 9ac <ebreak_msg>
	jal ra, print_str
 1c8:	1f0000ef          	jal	x1,3b8 <print_str>
	j fail_test
 1cc:	02c0006f          	jal	x0,1f8 <fail_test>

000001d0 <handle_illegal_insn>:

handle_illegal_insn:
	la a0, illegal_insn_msg
 1d0:	00000517          	auipc	x10,0x0
 1d4:	78c50513          	addi	x10,x10,1932 # 95c <illegal_insn_msg>
	jal ra, print_str
 1d8:	1e0000ef          	jal	x1,3b8 <print_str>
	j fail_test
 1dc:	01c0006f          	jal	x0,1f8 <fail_test>

000001e0 <handle_unknown>:

handle_unknown:
	la a0, unknown_msg
 1e0:	00000517          	auipc	x10,0x0
 1e4:	7ee50513          	addi	x10,x10,2030 # 9ce <unknown_msg>
	jal ra, print_str
 1e8:	1d0000ef          	jal	x1,3b8 <print_str>
	mv a0, t0
 1ec:	00028513          	addi	x10,x5,0
	jal ra, print_chr
 1f0:	198000ef          	jal	x1,388 <print_chr>
	j fail_test
 1f4:	0040006f          	jal	x0,1f8 <fail_test>

000001f8 <fail_test>:

fail_test:
	li a0, 1
 1f8:	00100513          	addi	x10,x0,1
	sw a0, test_results, t1 /* signal failure */
 1fc:	00000317          	auipc	x6,0x0
 200:	e0a32223          	sw	x10,-508(x6) # 0 <__irq_base_vector>
	csrr a0, mepc
 204:	34102573          	csrrs	x10,mepc,x0
	addi a0, a0, 4
 208:	00450513          	addi	x10,x10,4
	csrw mepc, a0
 20c:	34151073          	csrrw	x0,mepc,x10
	mret
 210:	30200073          	mret
	wfi
 214:	10500073          	wfi

00000218 <timer_irq_handler>:

/* when we get a timeout we abort the whole testing procedure */
timer_irq_handler:
	la a0, timeout_msg
 218:	00001517          	auipc	x10,0x1
 21c:	82e50513          	addi	x10,x10,-2002 # a46 <timeout_msg>
	jal ra, print_str
 220:	198000ef          	jal	x1,3b8 <print_str>
	li a0, 1
 224:	00100513          	addi	x10,x0,1
	sw a0, test_results, t1 /* signal failure */
 228:	00000317          	auipc	x6,0x0
 22c:	dca32c23          	sw	x10,-552(x6) # 0 <__irq_base_vector>
	j fast_exit
 230:	1180006f          	jal	x0,348 <fast_exit>

00000234 <start>:

start:
	/* 1. 初始化全局指针 (Global Pointer) */
.option push
.option norelax
1:	auipc gp, %pcrel_hi(__global_pointer$)
 234:	00000197          	auipc	x3,0x0
	addi  gp, gp, %pcrel_lo(1b)
 238:	5cc18193          	addi	x3,x3,1484 # 800 <__global_pointer$>
.option pop

	/* 2. [关键修改] 尽早初始化栈指针 (Stack Pointer) */
	/* 将栈顶设置在内存高位 (1MB处)，必须在调用任何 C 函数之前完成 */
	lui sp,(1024*1024)>>12 
 23c:	00100137          	lui	x2,0x100

    /* 3. [关键修改] 数据搬运循环 (Copy .data from ROM to RAM) */
    /* 依赖修改后的 link.ld 提供的符号 */
    la a0, _data_lma_start  /* 源地址：Firmware 中的数据位置 */
 240:	00001517          	auipc	x10,0x1
 244:	87850513          	addi	x10,x10,-1928 # ab8 <_data_lma_start>
    la a1, _data_start      /* 目的地址：RAM 中的起始位置 */
 248:	00000597          	auipc	x11,0x0
 24c:	db858593          	addi	x11,x11,-584 # 0 <__irq_base_vector>
    la a2, _data_end        /* 目的地址：RAM 中的结束位置 */
 250:	00000617          	auipc	x12,0x0
 254:	db860613          	addi	x12,x12,-584 # 8 <_data_end>
    
    /* 如果源地址和目的地址相同（极少见情况），则跳过 */
    beq a0, a1, copy_data_done
 258:	00b50e63          	beq	x10,x11,274 <copy_data_done>

0000025c <copy_data_loop>:

copy_data_loop:
    bge a1, a2, copy_data_done /* 如果当前地址 >= 结束地址，完成 */
 25c:	00c5dc63          	bge	x11,x12,274 <copy_data_done>
    lw t0, 0(a0)               /* 从 ROM 读取一个字 */
 260:	00052283          	lw	x5,0(x10)
    sw t0, 0(a1)               /* 写入 RAM 一个字 */
 264:	0055a023          	sw	x5,0(x11)
    addi a0, a0, 4             /* 源指针 +4 */
 268:	00450513          	addi	x10,x10,4
    addi a1, a1, 4             /* 目的指针 +4 */
 26c:	00458593          	addi	x11,x11,4
    j copy_data_loop
 270:	fedff06f          	jal	x0,25c <copy_data_loop>

00000274 <copy_data_done>:

copy_data_done:

	/* 4. 初始化性能计数器 (调用 C 函数) */
	jal ra, init_stats
 274:	3c4000ef          	jal	x1,638 <init_stats>

	/* 5. 清零 BSS 段 (Init bss to zero) */
	li t0, 0
 278:	00000293          	addi	x5,x0,0
	la t1, __bss_start
 27c:	00000317          	auipc	x6,0x0
 280:	d8c30313          	addi	x6,x6,-628 # 8 <_data_end>
	la t2, __bss_end
 284:	00000397          	auipc	x7,0x0
 288:	58438393          	addi	x7,x7,1412 # 808 <__bss_end>

0000028c <loop_bss>:

loop_bss:
	bge t1, t2, loop_bss_done
 28c:	00735863          	bge	x6,x7,29c <loop_bss_done>
	sw t0, 0(t1)
 290:	00532023          	sw	x5,0(x6)
	addi t1, t1, 4
 294:	00430313          	addi	x6,x6,4
	j loop_bss
 298:	ff5ff06f          	jal	x0,28c <loop_bss>

0000029c <loop_bss_done>:
loop_bss_done:

	/* 6. 清零所有通用寄存器 (避免 X 态传播) */
	addi x1, zero, 0
 29c:	00000093          	addi	x1,x0,0
	//addi x2, zero, 0
	/* addi x3, zero, 0 */ /* gp 已经初始化，不要清零 */
	addi x4, zero, 0
 2a0:	00000213          	addi	x4,x0,0
	addi x5, zero, 0
 2a4:	00000293          	addi	x5,x0,0
	addi x6, zero, 0
 2a8:	00000313          	addi	x6,x0,0
	addi x7, zero, 0
 2ac:	00000393          	addi	x7,x0,0
	addi x8, zero, 0
 2b0:	00000413          	addi	x8,x0,0
	addi x9, zero, 0
 2b4:	00000493          	addi	x9,x0,0
	addi x10, zero, 0
 2b8:	00000513          	addi	x10,x0,0
	addi x11, zero, 0
 2bc:	00000593          	addi	x11,x0,0
	addi x12, zero, 0
 2c0:	00000613          	addi	x12,x0,0
	addi x13, zero, 0
 2c4:	00000693          	addi	x13,x0,0
	addi x14, zero, 0
 2c8:	00000713          	addi	x14,x0,0
	addi x15, zero, 0
 2cc:	00000793          	addi	x15,x0,0
	addi x16, zero, 0
 2d0:	00000813          	addi	x16,x0,0
	addi x17, zero, 0
 2d4:	00000893          	addi	x17,x0,0
	addi x18, zero, 0
 2d8:	00000913          	addi	x18,x0,0
	addi x19, zero, 0
 2dc:	00000993          	addi	x19,x0,0
	addi x20, zero, 0
 2e0:	00000a13          	addi	x20,x0,0
	addi x21, zero, 0
 2e4:	00000a93          	addi	x21,x0,0
	addi x22, zero, 0
 2e8:	00000b13          	addi	x22,x0,0
	addi x23, zero, 0
 2ec:	00000b93          	addi	x23,x0,0
	addi x24, zero, 0
 2f0:	00000c13          	addi	x24,x0,0
	addi x25, zero, 0
 2f4:	00000c93          	addi	x25,x0,0
	addi x26, zero, 0
 2f8:	00000d13          	addi	x26,x0,0
	addi x27, zero, 0
 2fc:	00000d93          	addi	x27,x0,0
	addi x28, zero, 0
 300:	00000e13          	addi	x28,x0,0
	addi x29, zero, 0
 304:	00000e93          	addi	x29,x0,0
	addi x30, zero, 0
 308:	00000f13          	addi	x30,x0,0
	addi x31, zero, 0
 30c:	00000f93          	addi	x31,x0,0

	/* 7. 开启机器级中断 */
	li      t0, 8
 310:	00800293          	addi	x5,x0,8
	csrrs   zero, mstatus, t0
 314:	3002a073          	csrrs	x0,mstatus,x5

	/* 8. 设置定时器中断 Mask */
	li a0, timer_irq_mask
 318:	15000537          	lui	x10,0x15000
	li a1, 0x8
 31c:	00800593          	addi	x11,x0,8
	sw a1,0(a0)
 320:	00b52023          	sw	x11,0(x10) # 15000000 <timer_irq_mask>
	.global n ## _ret; \
	n ## _ret:
#endif

	/* 9. 跳转到主程序 app() */
	TEST(app)
 324:	15000537          	lui	x10,0x15000
 328:	00450513          	addi	x10,x10,4 # 15000004 <timer_irq_val>
 32c:	000185b7          	lui	x11,0x18
 330:	6a058593          	addi	x11,x11,1696 # 186a0 <_data_lma_start+0x17be8>
 334:	00b52023          	sw	x11,0(x10)
 338:	47c0006f          	jal	x0,7b4 <app>

0000033c <app_ret>:

	/* 栈指针初始化已移至开头，此处删除旧代码 */
	
	/* GP 初始化已移至开头，保留 TP 初始化 */
	lui gp, %hi(0xdeadbeef)
 33c:	deadc1b7          	lui	x3,0xdeadc
	addi gp, gp, %lo(0xdeadbeef)
 340:	eef18193          	addi	x3,x3,-273 # deadbeef <pulp__FC+0xdeadbef0>
	addi tp, gp, 0
 344:	00018213          	addi	x4,x3,0 # 800 <__global_pointer$>

00000348 <fast_exit>:
	/* call multest C code */
	jal ra,multest
#endif
fast_exit:
	/* print "DONE\n" */
	lui a0,print_port>>12
 348:	10000537          	lui	x10,0x10000
	addi a1,zero,'D'
 34c:	04400593          	addi	x11,x0,68
	addi a2,zero,'O'
 350:	04f00613          	addi	x12,x0,79
	addi a3,zero,'N'
 354:	04e00693          	addi	x13,x0,78
	addi a4,zero,'E'
 358:	04500713          	addi	x14,x0,69
	addi a5,zero,'\n'
 35c:	00a00793          	addi	x15,x0,10
	sw a1,0(a0)
 360:	00b52023          	sw	x11,0(x10) # 10000000 <print_port>
	sw a2,0(a0)
 364:	00c52023          	sw	x12,0(x10)
	sw a3,0(a0)
 368:	00d52023          	sw	x13,0(x10)
	sw a4,0(a0)
 36c:	00e52023          	sw	x14,0(x10)
	sw a5,0(a0)
 370:	00f52023          	sw	x15,0(x10)


	li a0, test_ret_val
 374:	20000537          	lui	x10,0x20000
	lw a1, test_results
 378:	00000597          	auipc	x11,0x0
 37c:	c885a583          	lw	x11,-888(x11) # 0 <__irq_base_vector>
	sw a1,0(a0)
 380:	00b52023          	sw	x11,0(x10) # 20000000 <test_ret_val>

	wfi  /* we are done */
 384:	10500073          	wfi

00000388 <print_chr>:
#include "firmware.h"

#define OUTPORT 0x10000000

void print_chr(char ch)
{
 388:	fe010113          	addi	x2,x2,-32 # fffe0 <_stack_top+0x7ffe0>
 38c:	00812e23          	sw	x8,28(x2)
 390:	02010413          	addi	x8,x2,32
 394:	00050793          	addi	x15,x10,0
 398:	fef407a3          	sb	x15,-17(x8)
    *((volatile uint32_t *)OUTPORT) = ch;
 39c:	100007b7          	lui	x15,0x10000
 3a0:	fef44703          	lbu	x14,-17(x8)
 3a4:	00e7a023          	sw	x14,0(x15) # 10000000 <print_port>
}
 3a8:	00000013          	addi	x0,x0,0
 3ac:	01c12403          	lw	x8,28(x2)
 3b0:	02010113          	addi	x2,x2,32
 3b4:	00008067          	jalr	x0,0(x1)

000003b8 <print_str>:

void print_str(const char *p)
{
 3b8:	fe010113          	addi	x2,x2,-32
 3bc:	00812e23          	sw	x8,28(x2)
 3c0:	02010413          	addi	x8,x2,32
 3c4:	fea42623          	sw	x10,-20(x8)
    while (*p != 0)
 3c8:	01c0006f          	jal	x0,3e4 <print_str+0x2c>
        *((volatile uint32_t *)OUTPORT) = *(p++);
 3cc:	fec42783          	lw	x15,-20(x8)
 3d0:	00178713          	addi	x14,x15,1
 3d4:	fee42623          	sw	x14,-20(x8)
 3d8:	0007c703          	lbu	x14,0(x15)
 3dc:	100007b7          	lui	x15,0x10000
 3e0:	00e7a023          	sw	x14,0(x15) # 10000000 <print_port>
    while (*p != 0)
 3e4:	fec42783          	lw	x15,-20(x8)
 3e8:	0007c783          	lbu	x15,0(x15)
 3ec:	fe0790e3          	bne	x15,x0,3cc <print_str+0x14>
}
 3f0:	00000013          	addi	x0,x0,0
 3f4:	01c12403          	lw	x8,28(x2)
 3f8:	02010113          	addi	x2,x2,32
 3fc:	00008067          	jalr	x0,0(x1)

00000400 <print_dec>:

void print_dec(unsigned int val)
{
 400:	fd010113          	addi	x2,x2,-48
 404:	02812623          	sw	x8,44(x2)
 408:	03010413          	addi	x8,x2,48
 40c:	fca42e23          	sw	x10,-36(x8)
    char buffer[10];
    char *p = buffer;
 410:	fe040793          	addi	x15,x8,-32
 414:	fef42623          	sw	x15,-20(x8)
    while (val || p == buffer) {
 418:	0340006f          	jal	x0,44c <print_dec+0x4c>
        *(p++) = val % 10;
 41c:	fdc42703          	lw	x14,-36(x8)
 420:	00a00793          	addi	x15,x0,10
 424:	02f776b3          	remu	x13,x14,x15
 428:	fec42783          	lw	x15,-20(x8)
 42c:	00178713          	addi	x14,x15,1
 430:	fee42623          	sw	x14,-20(x8)
 434:	0ff6f713          	andi	x14,x13,255
 438:	00e78023          	sb	x14,0(x15)
        val = val / 10;
 43c:	fdc42703          	lw	x14,-36(x8)
 440:	00a00793          	addi	x15,x0,10
 444:	02f757b3          	divu	x15,x14,x15
 448:	fcf42e23          	sw	x15,-36(x8)
    while (val || p == buffer) {
 44c:	fdc42783          	lw	x15,-36(x8)
 450:	fc0796e3          	bne	x15,x0,41c <print_dec+0x1c>
 454:	fe040793          	addi	x15,x8,-32
 458:	fec42703          	lw	x14,-20(x8)
 45c:	fcf700e3          	beq	x14,x15,41c <print_dec+0x1c>
    }
    while (p != buffer) {
 460:	0240006f          	jal	x0,484 <print_dec+0x84>
        *((volatile uint32_t *)OUTPORT) = '0' + *(--p);
 464:	fec42783          	lw	x15,-20(x8)
 468:	fff78793          	addi	x15,x15,-1
 46c:	fef42623          	sw	x15,-20(x8)
 470:	fec42783          	lw	x15,-20(x8)
 474:	0007c783          	lbu	x15,0(x15)
 478:	03078713          	addi	x14,x15,48
 47c:	100007b7          	lui	x15,0x10000
 480:	00e7a023          	sw	x14,0(x15) # 10000000 <print_port>
    while (p != buffer) {
 484:	fe040793          	addi	x15,x8,-32
 488:	fec42703          	lw	x14,-20(x8)
 48c:	fcf71ce3          	bne	x14,x15,464 <print_dec+0x64>
    }
}
 490:	00000013          	addi	x0,x0,0
 494:	02c12403          	lw	x8,44(x2)
 498:	03010113          	addi	x2,x2,48
 49c:	00008067          	jalr	x0,0(x1)

000004a0 <print_hex>:

void print_hex(unsigned int val, int digits)
{
 4a0:	fd010113          	addi	x2,x2,-48
 4a4:	02812623          	sw	x8,44(x2)
 4a8:	03010413          	addi	x8,x2,48
 4ac:	fca42e23          	sw	x10,-36(x8)
 4b0:	fcb42c23          	sw	x11,-40(x8)
    for (int i = (4 * digits) - 4; i >= 0; i -= 4)
 4b4:	fd842783          	lw	x15,-40(x8)
 4b8:	fff78793          	addi	x15,x15,-1
 4bc:	00279793          	slli	x15,x15,0x2
 4c0:	fef42623          	sw	x15,-20(x8)
 4c4:	0340006f          	jal	x0,4f8 <print_hex+0x58>
        *((volatile uint32_t *)OUTPORT) = "0123456789ABCDEF"[(val >> i) % 16];
 4c8:	fdc42703          	lw	x14,-36(x8)
 4cc:	fec42783          	lw	x15,-20(x8)
 4d0:	00f757b3          	srl	x15,x14,x15
 4d4:	00f7f713          	andi	x14,x15,15
 4d8:	26418793          	addi	x15,x3,612 # a64 <timeout_msg+0x1e>
 4dc:	00f707b3          	add	x15,x14,x15
 4e0:	0007c703          	lbu	x14,0(x15)
 4e4:	100007b7          	lui	x15,0x10000
 4e8:	00e7a023          	sw	x14,0(x15) # 10000000 <print_port>
    for (int i = (4 * digits) - 4; i >= 0; i -= 4)
 4ec:	fec42783          	lw	x15,-20(x8)
 4f0:	ffc78793          	addi	x15,x15,-4
 4f4:	fef42623          	sw	x15,-20(x8)
 4f8:	fec42783          	lw	x15,-20(x8)
 4fc:	fc07d6e3          	bge	x15,x0,4c8 <print_hex+0x28>
}
 500:	00000013          	addi	x0,x0,0
 504:	02c12403          	lw	x8,44(x2)
 508:	03010113          	addi	x2,x2,48
 50c:	00008067          	jalr	x0,0(x1)

00000510 <stats_print_dec>:
// means.

#include "firmware.h"

static void stats_print_dec(unsigned int val, int digits, bool zero_pad)
{
 510:	fb010113          	addi	x2,x2,-80
 514:	04112623          	sw	x1,76(x2)
 518:	04812423          	sw	x8,72(x2)
 51c:	05010413          	addi	x8,x2,80
 520:	faa42e23          	sw	x10,-68(x8)
 524:	fab42c23          	sw	x11,-72(x8)
 528:	00060793          	addi	x15,x12,0
 52c:	faf40ba3          	sb	x15,-73(x8)
    char buffer[32];
    char *p = buffer;
 530:	fcc40793          	addi	x15,x8,-52
 534:	fef42623          	sw	x15,-20(x8)
    while (val || digits > 0) {
 538:	0780006f          	jal	x0,5b0 <stats_print_dec+0xa0>
	if (val)
 53c:	fbc42783          	lw	x15,-68(x8)
 540:	02078863          	beq	x15,x0,570 <stats_print_dec+0x60>
	    *(p++) = '0' + val % 10;
 544:	fbc42703          	lw	x14,-68(x8)
 548:	00a00793          	addi	x15,x0,10
 54c:	02f777b3          	remu	x15,x14,x15
 550:	0ff7f713          	andi	x14,x15,255
 554:	fec42783          	lw	x15,-20(x8)
 558:	00178693          	addi	x13,x15,1
 55c:	fed42623          	sw	x13,-20(x8)
 560:	03070713          	addi	x14,x14,48
 564:	0ff77713          	andi	x14,x14,255
 568:	00e78023          	sb	x14,0(x15)
 56c:	0280006f          	jal	x0,594 <stats_print_dec+0x84>
	else
	    *(p++) = zero_pad ? '0' : ' ';
 570:	fb744783          	lbu	x15,-73(x8)
 574:	00078663          	beq	x15,x0,580 <stats_print_dec+0x70>
 578:	03000713          	addi	x14,x0,48
 57c:	0080006f          	jal	x0,584 <stats_print_dec+0x74>
 580:	02000713          	addi	x14,x0,32
 584:	fec42783          	lw	x15,-20(x8)
 588:	00178693          	addi	x13,x15,1
 58c:	fed42623          	sw	x13,-20(x8)
 590:	00e78023          	sb	x14,0(x15)
	val = val / 10;
 594:	fbc42703          	lw	x14,-68(x8)
 598:	00a00793          	addi	x15,x0,10
 59c:	02f757b3          	divu	x15,x14,x15
 5a0:	faf42e23          	sw	x15,-68(x8)
	digits--;
 5a4:	fb842783          	lw	x15,-72(x8)
 5a8:	fff78793          	addi	x15,x15,-1
 5ac:	faf42c23          	sw	x15,-72(x8)
    while (val || digits > 0) {
 5b0:	fbc42783          	lw	x15,-68(x8)
 5b4:	f80794e3          	bne	x15,x0,53c <stats_print_dec+0x2c>
 5b8:	fb842783          	lw	x15,-72(x8)
 5bc:	f8f040e3          	blt	x0,x15,53c <stats_print_dec+0x2c>
    }
    while (p != buffer) {
 5c0:	0580006f          	jal	x0,618 <stats_print_dec+0x108>
	if (p[-1] == ' ' && p[-2] == ' ')
 5c4:	fec42783          	lw	x15,-20(x8)
 5c8:	fff78793          	addi	x15,x15,-1
 5cc:	0007c703          	lbu	x14,0(x15)
 5d0:	02000793          	addi	x15,x0,32
 5d4:	02f71463          	bne	x14,x15,5fc <stats_print_dec+0xec>
 5d8:	fec42783          	lw	x15,-20(x8)
 5dc:	ffe78793          	addi	x15,x15,-2
 5e0:	0007c703          	lbu	x14,0(x15)
 5e4:	02000793          	addi	x15,x0,32
 5e8:	00f71a63          	bne	x14,x15,5fc <stats_print_dec+0xec>
	    p[-1] = '.';
 5ec:	fec42783          	lw	x15,-20(x8)
 5f0:	fff78793          	addi	x15,x15,-1
 5f4:	02e00713          	addi	x14,x0,46
 5f8:	00e78023          	sb	x14,0(x15)
	print_chr(*(--p));
 5fc:	fec42783          	lw	x15,-20(x8)
 600:	fff78793          	addi	x15,x15,-1
 604:	fef42623          	sw	x15,-20(x8)
 608:	fec42783          	lw	x15,-20(x8)
 60c:	0007c783          	lbu	x15,0(x15)
 610:	00078513          	addi	x10,x15,0
 614:	d75ff0ef          	jal	x1,388 <print_chr>
    while (p != buffer) {
 618:	fcc40793          	addi	x15,x8,-52
 61c:	fec42703          	lw	x14,-20(x8)
 620:	faf712e3          	bne	x14,x15,5c4 <stats_print_dec+0xb4>
    }
}
 624:	00000013          	addi	x0,x0,0
 628:	04c12083          	lw	x1,76(x2)
 62c:	04812403          	lw	x8,72(x2)
 630:	05010113          	addi	x2,x2,80
 634:	00008067          	jalr	x0,0(x1)

00000638 <init_stats>:

void init_stats(void)
{
 638:	fe010113          	addi	x2,x2,-32
 63c:	00812e23          	sw	x8,28(x2)
 640:	02010413          	addi	x8,x2,32
    unsigned int pcmr = 1; /* global enable without saturation */
 644:	00100793          	addi	x15,x0,1
 648:	fef42623          	sw	x15,-20(x8)
    unsigned int pcer = 3; /* cycles and instr count enable */
 64c:	00300793          	addi	x15,x0,3
 650:	fef42423          	sw	x15,-24(x8)
    __asm__ volatile("csrw 0x7e0, %0" ::"r"(pcer));
 654:	fe842783          	lw	x15,-24(x8)
 658:	7e079073          	csrrw	x0,0x7e0,x15
    __asm__ volatile("csrw 0x7e1, %0" ::"r"(pcmr));
 65c:	fec42783          	lw	x15,-20(x8)
 660:	7e179073          	csrrw	x0,0x7e1,x15
}
 664:	00000013          	addi	x0,x0,0
 668:	01c12403          	lw	x8,28(x2)
 66c:	02010113          	addi	x2,x2,32
 670:	00008067          	jalr	x0,0(x1)

00000674 <stats>:

void stats(void)
{
 674:	fe010113          	addi	x2,x2,-32
 678:	00112e23          	sw	x1,28(x2)
 67c:	00812c23          	sw	x8,24(x2)
 680:	02010413          	addi	x8,x2,32
    unsigned int num_cycles, num_instr;
    /* ideally we could use this */
    // __asm__ volatile ("rdcycle %0; rdinstret %1;" : "=r"(num_cycles),
    // "=r"(num_instr));
    /* riscy specific */
    __asm__ volatile("csrr %0, 0x780" : "=r"(num_cycles));
 684:	780027f3          	csrrs	x15,pccr0,x0
 688:	fef42623          	sw	x15,-20(x8)
    __asm__ volatile("csrr %0, 0x781" : "=r"(num_instr));
 68c:	781027f3          	csrrs	x15,pccr1,x0
 690:	fef42423          	sw	x15,-24(x8)
    print_str("Cycle counter ........");
 694:	27818513          	addi	x10,x3,632 # a78 <timeout_msg+0x32>
 698:	d21ff0ef          	jal	x1,3b8 <print_str>
    stats_print_dec(num_cycles, 8, false);
 69c:	00000613          	addi	x12,x0,0
 6a0:	00800593          	addi	x11,x0,8
 6a4:	fec42503          	lw	x10,-20(x8)
 6a8:	e69ff0ef          	jal	x1,510 <stats_print_dec>
    print_str("\nInstruction counter ..");
 6ac:	29018513          	addi	x10,x3,656 # a90 <timeout_msg+0x4a>
 6b0:	d09ff0ef          	jal	x1,3b8 <print_str>
    stats_print_dec(num_instr, 8, false);
 6b4:	00000613          	addi	x12,x0,0
 6b8:	00800593          	addi	x11,x0,8
 6bc:	fe842503          	lw	x10,-24(x8)
 6c0:	e51ff0ef          	jal	x1,510 <stats_print_dec>
    print_str("\nCPI: ");
 6c4:	2a818513          	addi	x10,x3,680 # aa8 <timeout_msg+0x62>
 6c8:	cf1ff0ef          	jal	x1,3b8 <print_str>
    stats_print_dec((num_cycles / num_instr), 0, false);
 6cc:	fec42703          	lw	x14,-20(x8)
 6d0:	fe842783          	lw	x15,-24(x8)
 6d4:	02f757b3          	divu	x15,x14,x15
 6d8:	00000613          	addi	x12,x0,0
 6dc:	00000593          	addi	x11,x0,0
 6e0:	00078513          	addi	x10,x15,0
 6e4:	e2dff0ef          	jal	x1,510 <stats_print_dec>
    print_str(".");
 6e8:	2b018513          	addi	x10,x3,688 # ab0 <timeout_msg+0x6a>
 6ec:	ccdff0ef          	jal	x1,3b8 <print_str>
    stats_print_dec(((100 * num_cycles) / num_instr) % 100, 2, true);
 6f0:	fec42703          	lw	x14,-20(x8)
 6f4:	06400793          	addi	x15,x0,100
 6f8:	02f70733          	mul	x14,x14,x15
 6fc:	fe842783          	lw	x15,-24(x8)
 700:	02f75733          	divu	x14,x14,x15
 704:	06400793          	addi	x15,x0,100
 708:	02f777b3          	remu	x15,x14,x15
 70c:	00100613          	addi	x12,x0,1
 710:	00200593          	addi	x11,x0,2
 714:	00078513          	addi	x10,x15,0
 718:	df9ff0ef          	jal	x1,510 <stats_print_dec>
    print_str("\n");
 71c:	2b418513          	addi	x10,x3,692 # ab4 <timeout_msg+0x6e>
 720:	c99ff0ef          	jal	x1,3b8 <print_str>
}
 724:	00000013          	addi	x0,x0,0
 728:	01c12083          	lw	x1,28(x2)
 72c:	01812403          	lw	x8,24(x2)
 730:	02010113          	addi	x2,x2,32
 734:	00008067          	jalr	x0,0(x1)

00000738 <init_data>:
// =============================================================
#define MAX_SIZE 512
int data_out[MAX_SIZE];     
int N = 32; 

void init_data() {
 738:	fe010113          	addi	x2,x2,-32
 73c:	00812e23          	sw	x8,28(x2)
 740:	02010413          	addi	x8,x2,32


    for(int i=0; i<N; i++) {
 744:	fe042623          	sw	x0,-20(x8)
 748:	0500006f          	jal	x0,798 <init_data+0x60>
        data_out[i] = COMBINE((i + 1)*100, i + 1); 
 74c:	fec42783          	lw	x15,-20(x8)
 750:	00178713          	addi	x14,x15,1
 754:	06400793          	addi	x15,x0,100
 758:	02f707b3          	mul	x15,x14,x15
 75c:	01079713          	slli	x14,x15,0x10
 760:	fec42783          	lw	x15,-20(x8)
 764:	00178693          	addi	x13,x15,1
 768:	000107b7          	lui	x15,0x10
 76c:	fff78793          	addi	x15,x15,-1 # ffff <_data_lma_start+0xf547>
 770:	00f6f7b3          	and	x15,x13,x15
 774:	00f76733          	or	x14,x14,x15
 778:	fec42683          	lw	x13,-20(x8)
 77c:	00269693          	slli	x13,x13,0x2
 780:	00800793          	addi	x15,x0,8
 784:	00f687b3          	add	x15,x13,x15
 788:	00e7a023          	sw	x14,0(x15)
    for(int i=0; i<N; i++) {
 78c:	fec42783          	lw	x15,-20(x8)
 790:	00178793          	addi	x15,x15,1
 794:	fef42623          	sw	x15,-20(x8)
 798:	00402783          	lw	x15,4(x0) # 4 <N>
 79c:	fec42703          	lw	x14,-20(x8)
 7a0:	faf746e3          	blt	x14,x15,74c <init_data+0x14>
    }
}
 7a4:	00000013          	addi	x0,x0,0
 7a8:	01c12403          	lw	x8,28(x2)
 7ac:	02010113          	addi	x2,x2,32
 7b0:	00008067          	jalr	x0,0(x1)

000007b4 <app>:

// =============================================================
//  Part 6: 主程序
// =============================================================

int app() {
 7b4:	fc010113          	addi	x2,x2,-64
 7b8:	02112e23          	sw	x1,60(x2)
 7bc:	02812c23          	sw	x8,56(x2)
 7c0:	04010413          	addi	x8,x2,64
    init_data();
 7c4:	f75ff0ef          	jal	x1,738 <init_data>
    volatile int *ptr_cpu_in_b  = BANK1_BASE;
 7c8:	001007b7          	lui	x15,0x100
 7cc:	fcf42e23          	sw	x15,-36(x8)
    volatile int *ptr_cpu_out_b = BANK2_BASE;
 7d0:	002007b7          	lui	x15,0x200
 7d4:	fcf42c23          	sw	x15,-40(x8)

    // 硬件参数
    // 这里的 LATENCY 是你需要在映射算法中自动解决的，C代码不做补偿
    const int HW_LATENCY = 30; 
 7d8:	01e00793          	addi	x15,x0,30
 7dc:	fcf42a23          	sw	x15,-44(x8)
    const int HW_II = 1;       
 7e0:	00100793          	addi	x15,x0,1
 7e4:	fcf42823          	sw	x15,-48(x8)
    
    // 测试参数：4个批次，每批次8个数据
    const int NUM_BATCHES = 4; 
 7e8:	00400793          	addi	x15,x0,4
 7ec:	fcf42623          	sw	x15,-52(x8)
    const int BATCH_SIZE = 8;  
 7f0:	00800793          	addi	x15,x0,8
 7f4:	fcf42423          	sw	x15,-56(x8)

    int total_errors = 0;
 7f8:	fc042223          	sw	x0,-60(x8)

    // --- 外层循环：模拟多次任务提交 (Batch Processing) ---
    for (int i = 0; i < N; i += BATCH_SIZE) {
 7fc:	fe042623          	sw	x0,-20(x8)
 800:	1280006f          	jal	x0,928 <__bss_end+0x120>
		
        for (int j = i , n = 0; n < BATCH_SIZE; j ++ , n ++) {             
 804:	fec42783          	lw	x15,-20(x8)
 808:	fef42423          	sw	x15,-24(x8)
 80c:	fe042223          	sw	x0,-28(x8)
 810:	0440006f          	jal	x0,854 <__bss_end+0x4c>
            ptr_cpu_in_b[n] = data_out[j];            
 814:	fe442783          	lw	x15,-28(x8)
 818:	00279793          	slli	x15,x15,0x2
 81c:	fdc42703          	lw	x14,-36(x8)
 820:	00f707b3          	add	x15,x14,x15
 824:	fe842683          	lw	x13,-24(x8)
 828:	00269693          	slli	x13,x13,0x2
 82c:	00800713          	addi	x14,x0,8
 830:	00e68733          	add	x14,x13,x14
 834:	00072703          	lw	x14,0(x14)
 838:	00e7a023          	sw	x14,0(x15) # 200000 <_stack_top+0x180000>
        for (int j = i , n = 0; n < BATCH_SIZE; j ++ , n ++) {             
 83c:	fe842783          	lw	x15,-24(x8)
 840:	00178793          	addi	x15,x15,1
 844:	fef42423          	sw	x15,-24(x8)
 848:	fe442783          	lw	x15,-28(x8)
 84c:	00178793          	addi	x15,x15,1
 850:	fef42223          	sw	x15,-28(x8)
 854:	fe442703          	lw	x14,-28(x8)
 858:	fc842783          	lw	x15,-56(x8)
 85c:	faf74ce3          	blt	x14,x15,814 <__bss_end+0xc>
        }
        

        // 尾部填充 (Tail Padding) - 防止流水线读脏数据
        for(int k=0; k<4; k++) { 
 860:	fe042023          	sw	x0,-32(x8)
 864:	02c0006f          	jal	x0,890 <__bss_end+0x88>
            ptr_cpu_in_b[BATCH_SIZE + k] = 0;
 868:	fc842703          	lw	x14,-56(x8)
 86c:	fe042783          	lw	x15,-32(x8)
 870:	00f707b3          	add	x15,x14,x15
 874:	00279793          	slli	x15,x15,0x2
 878:	fdc42703          	lw	x14,-36(x8)
 87c:	00f707b3          	add	x15,x14,x15
 880:	0007a023          	sw	x0,0(x15)
        for(int k=0; k<4; k++) { 
 884:	fe042783          	lw	x15,-32(x8)
 888:	00178793          	addi	x15,x15,1
 88c:	fef42023          	sw	x15,-32(x8)
 890:	fe042703          	lw	x14,-32(x8)
 894:	00300793          	addi	x15,x0,3
 898:	fce7d8e3          	bge	x15,x14,868 <__bss_end+0x60>
        // -----------------------------------------------------
        // 2. 配置 CGRA (验证映射算法是否解决了时序问题)
        // -----------------------------------------------------
        
        // Input 配置：相对地址 0
        MMIO_WRITE(PORT_IN_B_ADDR, 0);
 89c:	004007b7          	lui	x15,0x400
 8a0:	00478793          	addi	x15,x15,4 # 400004 <_stack_top+0x380004>
 8a4:	0007a023          	sw	x0,0(x15)

        MMIO_WRITE(PORT_OUT_B_ADDR, 0);
 8a8:	004007b7          	lui	x15,0x400
 8ac:	0007a023          	sw	x0,0(x15) # 400000 <_stack_top+0x380000>

        // -----------------------------------------------------
        // 3. 复位硬件 (清除流水线残留)
        // -----------------------------------------------------
        MMIO_WRITE(CGRA_RESET_ADDR, 1);
 8b0:	004007b7          	lui	x15,0x400
 8b4:	03878793          	addi	x15,x15,56 # 400038 <_stack_top+0x380038>
 8b8:	00100713          	addi	x14,x0,1
 8bc:	00e7a023          	sw	x14,0(x15)
        __asm__("nop"); __asm__("nop");
 8c0:	00000013          	addi	x0,x0,0
 8c4:	00000013          	addi	x0,x0,0
        MMIO_WRITE(CGRA_RESET_ADDR, 0);
 8c8:	004007b7          	lui	x15,0x400
 8cc:	03878793          	addi	x15,x15,56 # 400038 <_stack_top+0x380038>
 8d0:	0007a023          	sw	x0,0(x15)
        __asm__("nop"); __asm__("nop");
 8d4:	00000013          	addi	x0,x0,0
 8d8:	00000013          	addi	x0,x0,0

        // -----------------------------------------------------
        // 4. 启动执行
        // -----------------------------------------------------
        int exec_cycles = HW_LATENCY + (BATCH_SIZE - 1) * HW_II + 30;
 8dc:	fc842783          	lw	x15,-56(x8)
 8e0:	fff78713          	addi	x14,x15,-1
 8e4:	fd042783          	lw	x15,-48(x8)
 8e8:	02f70733          	mul	x14,x14,x15
 8ec:	fd442783          	lw	x15,-44(x8)
 8f0:	00f707b3          	add	x15,x14,x15
 8f4:	01e78793          	addi	x15,x15,30
 8f8:	fcf42023          	sw	x15,-64(x8)
        MMIO_WRITE(CGRA_LOOP_CNT_ADDR, exec_cycles);
 8fc:	004007b7          	lui	x15,0x400
 900:	03078793          	addi	x15,x15,48 # 400030 <_stack_top+0x380030>
 904:	fc042703          	lw	x14,-64(x8)
 908:	00e7a023          	sw	x14,0(x15)

        // 等待完成 (Polling)
        __asm__ volatile (
 90c:	1f400f93          	addi	x31,x0,500
 910:	ffff8f93          	addi	x31,x31,-1
 914:	fe0f9ee3          	bne	x31,x0,910 <__bss_end+0x108>
    for (int i = 0; i < N; i += BATCH_SIZE) {
 918:	fec42703          	lw	x14,-20(x8)
 91c:	fc842783          	lw	x15,-56(x8)
 920:	00f707b3          	add	x15,x14,x15
 924:	fef42623          	sw	x15,-20(x8)
 928:	00402783          	lw	x15,4(x0) # 4 <N>
 92c:	fec42703          	lw	x14,-20(x8)
 930:	ecf74ae3          	blt	x14,x15,804 <__global_pointer$+0x4>
            "bnez t6, 1b\n"      
            ::: "t6"
        );
    }
    
    return 0;
 934:	00000793          	addi	x15,x0,0
 938:	00078513          	addi	x10,x15,0
 93c:	03c12083          	lw	x1,60(x2)
 940:	03812403          	lw	x8,56(x2)
 944:	04010113          	addi	x2,x2,64
 948:	00008067          	jalr	x0,0(x1)

Disassembly of section .legacy_irq:

0000094c <.legacy_irq>:
	j vector_table
 94c:	eb4ff06f          	jal	x0,0 <__irq_base_vector>
	j __no_irq_handler
 950:	835ff06f          	jal	x0,184 <__mem_start>
	j __no_irq_handler
 954:	831ff06f          	jal	x0,184 <__mem_start>
	j vector_table_timer
 958:	ec4ff06f          	jal	x0,1c <vector_table_timer>

Disassembly of section .Pulp_Chip.Info:

00000000 <.Pulp_Chip.Info>:
	j sw_irq_handler /* ecall, illegal insn and data prohibited */
   0:	000a                	0xa
   2:	0000                	unimp
	j __no_irq_handler
   4:	0038                	c.addi4spn	x14,x2,8
   6:	0000                	unimp
	j __no_irq_handler
   8:	0001                	c.nop
   a:	0000                	unimp
	j __no_irq_handler
   c:	7550                	c.flw	f12,44(x10)
   e:	706c                	c.flw	f11,100(x8)
	j __no_irq_handler
  10:	495f 666e 006f      	0x6f666e495f
	j __no_irq_handler
  16:	70696863          	bltu	x18,x6,726 <stats+0xb2>
	j __no_irq_handler
  1a:	6e3d                	c.lui	x28,0xf
	j timer_irq_handler
  1c:	20656e6f          	jal	x28,56222 <_data_lma_start+0x5576a>
	j __no_irq_handler
  20:	3d757063          	bgeu	x10,x23,3e0 <print_str+0x28>
	j __no_irq_handler
  24:	6f6e                	c.flwsp	f30,216(x2)
  26:	656e                	c.flwsp	f10,216(x2)
	j __no_irq_handler
  28:	7020                	c.flw	f8,96(x8)
  2a:	3d65                	c.jal	fffffee2 <pulp__FC+0xfffffee3>
	j __no_irq_handler
  2c:	312d                	c.jal	fffffc56 <pulp__FC+0xfffffc57>
  2e:	6620                	c.flw	f8,72(x12)
	j __no_irq_handler
  30:	312d3d63          	p.bneimm	x26,-14,34a <fast_exit+0x2>
	j __no_irq_handler
  34:	6c20                	c.flw	f8,88(x8)
  36:	3d32                	c.fldsp	f26,296(x2)
	j __no_irq_handler
  38:	312d                	c.jal	fffffc62 <pulp__FC+0xfffffc63>
  3a:	6c20                	c.flw	f8,88(x8)
	j __no_irq_handler
  3c:	6331                	c.lui	x6,0xc
  3e:	3d6c                	c.fld	f11,248(x10)
	j __no_irq_handler
  40:	312d                	c.jal	fffffc6a <pulp__FC+0xfffffc6b>
  42:	6c20                	c.flw	f8,88(x8)
	j __no_irq_handler
  44:	6631                	c.lui	x12,0xc
  46:	312d3d63          	p.bneimm	x26,-14,360 <fast_exit+0x18>
	j __no_irq_handler
  4a:	0000                	unimp
	...
