
firmware/firmware.elf:     file format elf32-littleriscv


Disassembly of section .vectors:

00000000 <__irq_base_vector>:
.set test_ret_val, 0x20000000

.section .vectors, "ax"
.option norvc
vector_table:
	j sw_irq_handler /* ecall, illegal insn and data prohibited */
   0:	1940006f          	jal	x0,194 <sw_irq_handler>
	j __no_irq_handler
   4:	1800006f          	jal	x0,184 <__mem_start>
	j __no_irq_handler
   8:	17c0006f          	jal	x0,184 <__mem_start>
	j __no_irq_handler
   c:	1780006f          	jal	x0,184 <__mem_start>
	j __no_irq_handler
  10:	1740006f          	jal	x0,184 <__mem_start>
	j __no_irq_handler
  14:	1700006f          	jal	x0,184 <__mem_start>
	j __no_irq_handler
  18:	16c0006f          	jal	x0,184 <__mem_start>

0000001c <vector_table_timer>:
vector_table_timer:
	j timer_irq_handler
  1c:	1fc0006f          	jal	x0,218 <timer_irq_handler>
	j __no_irq_handler
  20:	1640006f          	jal	x0,184 <__mem_start>
	j __no_irq_handler
  24:	1600006f          	jal	x0,184 <__mem_start>
	j __no_irq_handler
  28:	15c0006f          	jal	x0,184 <__mem_start>
	j __no_irq_handler
  2c:	1580006f          	jal	x0,184 <__mem_start>
	j __no_irq_handler
  30:	1540006f          	jal	x0,184 <__mem_start>
	j __no_irq_handler
  34:	1500006f          	jal	x0,184 <__mem_start>
	j __no_irq_handler
  38:	14c0006f          	jal	x0,184 <__mem_start>
	j __no_irq_handler
  3c:	1480006f          	jal	x0,184 <__mem_start>
	j __no_irq_handler
  40:	1440006f          	jal	x0,184 <__mem_start>
	j __no_irq_handler
  44:	1400006f          	jal	x0,184 <__mem_start>
	j __no_irq_handler
  48:	13c0006f          	jal	x0,184 <__mem_start>
	j __no_irq_handler
  4c:	1380006f          	jal	x0,184 <__mem_start>
	j __no_irq_handler
  50:	1340006f          	jal	x0,184 <__mem_start>
	j __no_irq_handler
  54:	1300006f          	jal	x0,184 <__mem_start>
	j __no_irq_handler
  58:	12c0006f          	jal	x0,184 <__mem_start>
	j __no_irq_handler
  5c:	1280006f          	jal	x0,184 <__mem_start>
	j __no_irq_handler
  60:	1240006f          	jal	x0,184 <__mem_start>
	j __no_irq_handler
  64:	1200006f          	jal	x0,184 <__mem_start>
	j __no_irq_handler
  68:	11c0006f          	jal	x0,184 <__mem_start>
	j __no_irq_handler
  6c:	1180006f          	jal	x0,184 <__mem_start>
	j __no_irq_handler
  70:	1140006f          	jal	x0,184 <__mem_start>
	j __no_irq_handler
  74:	1100006f          	jal	x0,184 <__mem_start>
	j __no_irq_handler
  78:	10c0006f          	jal	x0,184 <__mem_start>
	j __no_irq_handler
  7c:	1080006f          	jal	x0,184 <__mem_start>
	j __no_irq_handler
  80:	1040006f          	jal	x0,184 <__mem_start>
	j __no_irq_handler
  84:	1000006f          	jal	x0,184 <__mem_start>
	j __no_irq_handler
  88:	0fc0006f          	jal	x0,184 <__mem_start>
	j __no_irq_handler
  8c:	0f80006f          	jal	x0,184 <__mem_start>
	j __no_irq_handler
  90:	0f40006f          	jal	x0,184 <__mem_start>
	j __no_irq_handler
  94:	0f00006f          	jal	x0,184 <__mem_start>
	j __no_irq_handler
  98:	0ec0006f          	jal	x0,184 <__mem_start>
	j __no_irq_handler
  9c:	0e80006f          	jal	x0,184 <__mem_start>
	j __no_irq_handler
  a0:	0e40006f          	jal	x0,184 <__mem_start>
	j __no_irq_handler
  a4:	0e00006f          	jal	x0,184 <__mem_start>
	j __no_irq_handler
  a8:	0dc0006f          	jal	x0,184 <__mem_start>
	j __no_irq_handler
  ac:	0d80006f          	jal	x0,184 <__mem_start>
	j __no_irq_handler
  b0:	0d40006f          	jal	x0,184 <__mem_start>
	j __no_irq_handler
  b4:	0d00006f          	jal	x0,184 <__mem_start>
	j __no_irq_handler
  b8:	0cc0006f          	jal	x0,184 <__mem_start>
	j __no_irq_handler
  bc:	0c80006f          	jal	x0,184 <__mem_start>
	j __no_irq_handler
  c0:	0c40006f          	jal	x0,184 <__mem_start>
	j __no_irq_handler
  c4:	0c00006f          	jal	x0,184 <__mem_start>
	j __no_irq_handler
  c8:	0bc0006f          	jal	x0,184 <__mem_start>
	j __no_irq_handler
  cc:	0b80006f          	jal	x0,184 <__mem_start>
	j __no_irq_handler
  d0:	0b40006f          	jal	x0,184 <__mem_start>
	j __no_irq_handler
  d4:	0b00006f          	jal	x0,184 <__mem_start>
	j __no_irq_handler
  d8:	0ac0006f          	jal	x0,184 <__mem_start>
	j __no_irq_handler
  dc:	0a80006f          	jal	x0,184 <__mem_start>
	j __no_irq_handler
  e0:	0a40006f          	jal	x0,184 <__mem_start>
	j __no_irq_handler
  e4:	0a00006f          	jal	x0,184 <__mem_start>
	j __no_irq_handler
  e8:	09c0006f          	jal	x0,184 <__mem_start>
	j __no_irq_handler
  ec:	0980006f          	jal	x0,184 <__mem_start>
	j __no_irq_handler
  f0:	0940006f          	jal	x0,184 <__mem_start>
	j __no_irq_handler
  f4:	0900006f          	jal	x0,184 <__mem_start>
	j __no_irq_handler
  f8:	08c0006f          	jal	x0,184 <__mem_start>
	j __no_irq_handler
  fc:	0880006f          	jal	x0,184 <__mem_start>

Disassembly of section .start:

00000100 <__boot_addr-0x80>:
	...

00000180 <__boot_addr>:
	j __no_irq_handler
	j vector_table_timer


.section .start, "ax"
	j start
 180:	0b40006f          	jal	x0,234 <start>

Disassembly of section .text:

00000184 <__mem_start>:
.global print_str


/* exception handling */
__no_irq_handler:
	la a0, no_exception_handler_msg
 184:	00001517          	auipc	x10,0x1
 188:	b5950513          	addi	x10,x10,-1191 # cdd <no_exception_handler_msg>
	jal ra, print_str
 18c:	22c000ef          	jal	x1,3b8 <print_str>
	j __no_irq_handler
 190:	ff5ff06f          	jal	x0,184 <__mem_start>

00000194 <sw_irq_handler>:


sw_irq_handler:
	csrr t0, mcause
 194:	342022f3          	csrrs	x5,mcause,x0
	slli t0, t0, 1  /* shift off the high bit */
 198:	00129293          	slli	x5,x5,0x1
	srli t0, t0, 1
 19c:	0012d293          	srli	x5,x5,0x1
	li t1, 2
 1a0:	00200313          	addi	x6,x0,2
	beq t0, t1, handle_illegal_insn
 1a4:	02628663          	beq	x5,x6,1d0 <handle_illegal_insn>
	li t1, 11
 1a8:	00b00313          	addi	x6,x0,11
	beq t0, t1, handle_ecall
 1ac:	00628863          	beq	x5,x6,1bc <handle_ecall>
	li t1, 3
 1b0:	00300313          	addi	x6,x0,3
	beq t0, t1, handle_ebreak
 1b4:	00628663          	beq	x5,x6,1c0 <handle_ebreak>
	j handle_unknown
 1b8:	0280006f          	jal	x0,1e0 <handle_unknown>

000001bc <handle_ecall>:

handle_ecall:
	/* la a0, ecall_msg */
	/* jal ra, print_str */ /* this is too verbose for now */
	j fail_test
 1bc:	03c0006f          	jal	x0,1f8 <fail_test>

000001c0 <handle_ebreak>:

handle_ebreak:
	la a0, ebreak_msg
 1c0:	00001517          	auipc	x10,0x1
 1c4:	ad850513          	addi	x10,x10,-1320 # c98 <ebreak_msg>
	jal ra, print_str
 1c8:	1f0000ef          	jal	x1,3b8 <print_str>
	j fail_test
 1cc:	02c0006f          	jal	x0,1f8 <fail_test>

000001d0 <handle_illegal_insn>:

handle_illegal_insn:
	la a0, illegal_insn_msg
 1d0:	00001517          	auipc	x10,0x1
 1d4:	a7850513          	addi	x10,x10,-1416 # c48 <illegal_insn_msg>
	jal ra, print_str
 1d8:	1e0000ef          	jal	x1,3b8 <print_str>
	j fail_test
 1dc:	01c0006f          	jal	x0,1f8 <fail_test>

000001e0 <handle_unknown>:

handle_unknown:
	la a0, unknown_msg
 1e0:	00001517          	auipc	x10,0x1
 1e4:	ada50513          	addi	x10,x10,-1318 # cba <unknown_msg>
	jal ra, print_str
 1e8:	1d0000ef          	jal	x1,3b8 <print_str>
	mv a0, t0
 1ec:	00028513          	addi	x10,x5,0
	jal ra, print_chr
 1f0:	198000ef          	jal	x1,388 <print_chr>
	j fail_test
 1f4:	0040006f          	jal	x0,1f8 <fail_test>

000001f8 <fail_test>:

fail_test:
	li a0, 1
 1f8:	00100513          	addi	x10,x0,1
	sw a0, test_results, t1 /* signal failure */
 1fc:	00000317          	auipc	x6,0x0
 200:	e0a32223          	sw	x10,-508(x6) # 0 <__irq_base_vector>
	csrr a0, mepc
 204:	34102573          	csrrs	x10,mepc,x0
	addi a0, a0, 4
 208:	00450513          	addi	x10,x10,4
	csrw mepc, a0
 20c:	34151073          	csrrw	x0,mepc,x10
	mret
 210:	30200073          	mret
	wfi
 214:	10500073          	wfi

00000218 <timer_irq_handler>:

/* when we get a timeout we abort the whole testing procedure */
timer_irq_handler:
	la a0, timeout_msg
 218:	00001517          	auipc	x10,0x1
 21c:	b1a50513          	addi	x10,x10,-1254 # d32 <timeout_msg>
	jal ra, print_str
 220:	198000ef          	jal	x1,3b8 <print_str>
	li a0, 1
 224:	00100513          	addi	x10,x0,1
	sw a0, test_results, t1 /* signal failure */
 228:	00000317          	auipc	x6,0x0
 22c:	dca32c23          	sw	x10,-552(x6) # 0 <__irq_base_vector>
	j fast_exit
 230:	1180006f          	jal	x0,348 <fast_exit>

00000234 <start>:

start:
	/* 1. 初始化全局指针 (Global Pointer) */
.option push
.option norelax
1:	auipc gp, %pcrel_hi(__global_pointer$)
 234:	00000197          	auipc	x3,0x0
	addi  gp, gp, %pcrel_lo(1b)
 238:	5cc18193          	addi	x3,x3,1484 # 800 <__global_pointer$>
.option pop

	/* 2. [关键修改] 尽早初始化栈指针 (Stack Pointer) */
	/* 将栈顶设置在内存高位 (1MB处)，必须在调用任何 C 函数之前完成 */
	lui sp,(1024*1024)>>12 
 23c:	00100137          	lui	x2,0x100

    /* 3. [关键修改] 数据搬运循环 (Copy .data from ROM to RAM) */
    /* 依赖修改后的 link.ld 提供的符号 */
    la a0, _data_lma_start  /* 源地址：Firmware 中的数据位置 */
 240:	00001517          	auipc	x10,0x1
 244:	bb450513          	addi	x10,x10,-1100 # df4 <_data_lma_start>
    la a1, _data_start      /* 目的地址：RAM 中的起始位置 */
 248:	00000597          	auipc	x11,0x0
 24c:	db858593          	addi	x11,x11,-584 # 0 <__irq_base_vector>
    la a2, _data_end        /* 目的地址：RAM 中的结束位置 */
 250:	00000617          	auipc	x12,0x0
 254:	db860613          	addi	x12,x12,-584 # 8 <_data_end>
    
    /* 如果源地址和目的地址相同（极少见情况），则跳过 */
    beq a0, a1, copy_data_done
 258:	00b50e63          	beq	x10,x11,274 <copy_data_done>

0000025c <copy_data_loop>:

copy_data_loop:
    bge a1, a2, copy_data_done /* 如果当前地址 >= 结束地址，完成 */
 25c:	00c5dc63          	bge	x11,x12,274 <copy_data_done>
    lw t0, 0(a0)               /* 从 ROM 读取一个字 */
 260:	00052283          	lw	x5,0(x10)
    sw t0, 0(a1)               /* 写入 RAM 一个字 */
 264:	0055a023          	sw	x5,0(x11)
    addi a0, a0, 4             /* 源指针 +4 */
 268:	00450513          	addi	x10,x10,4
    addi a1, a1, 4             /* 目的指针 +4 */
 26c:	00458593          	addi	x11,x11,4
    j copy_data_loop
 270:	fedff06f          	jal	x0,25c <copy_data_loop>

00000274 <copy_data_done>:

copy_data_done:

	/* 4. 初始化性能计数器 (调用 C 函数) */
	jal ra, init_stats
 274:	3c4000ef          	jal	x1,638 <init_stats>

	/* 5. 清零 BSS 段 (Init bss to zero) */
	li t0, 0
 278:	00000293          	addi	x5,x0,0
	la t1, __bss_start
 27c:	00000317          	auipc	x6,0x0
 280:	d8c30313          	addi	x6,x6,-628 # 8 <_data_end>
	la t2, __bss_end
 284:	00001397          	auipc	x7,0x1
 288:	d8438393          	addi	x7,x7,-636 # 1008 <__bss_end>

0000028c <loop_bss>:

loop_bss:
	bge t1, t2, loop_bss_done
 28c:	00735863          	bge	x6,x7,29c <loop_bss_done>
	sw t0, 0(t1)
 290:	00532023          	sw	x5,0(x6)
	addi t1, t1, 4
 294:	00430313          	addi	x6,x6,4
	j loop_bss
 298:	ff5ff06f          	jal	x0,28c <loop_bss>

0000029c <loop_bss_done>:
loop_bss_done:

	/* 6. 清零所有通用寄存器 (避免 X 态传播) */
	addi x1, zero, 0
 29c:	00000093          	addi	x1,x0,0
	//addi x2, zero, 0
	/* addi x3, zero, 0 */ /* gp 已经初始化，不要清零 */
	addi x4, zero, 0
 2a0:	00000213          	addi	x4,x0,0
	addi x5, zero, 0
 2a4:	00000293          	addi	x5,x0,0
	addi x6, zero, 0
 2a8:	00000313          	addi	x6,x0,0
	addi x7, zero, 0
 2ac:	00000393          	addi	x7,x0,0
	addi x8, zero, 0
 2b0:	00000413          	addi	x8,x0,0
	addi x9, zero, 0
 2b4:	00000493          	addi	x9,x0,0
	addi x10, zero, 0
 2b8:	00000513          	addi	x10,x0,0
	addi x11, zero, 0
 2bc:	00000593          	addi	x11,x0,0
	addi x12, zero, 0
 2c0:	00000613          	addi	x12,x0,0
	addi x13, zero, 0
 2c4:	00000693          	addi	x13,x0,0
	addi x14, zero, 0
 2c8:	00000713          	addi	x14,x0,0
	addi x15, zero, 0
 2cc:	00000793          	addi	x15,x0,0
	addi x16, zero, 0
 2d0:	00000813          	addi	x16,x0,0
	addi x17, zero, 0
 2d4:	00000893          	addi	x17,x0,0
	addi x18, zero, 0
 2d8:	00000913          	addi	x18,x0,0
	addi x19, zero, 0
 2dc:	00000993          	addi	x19,x0,0
	addi x20, zero, 0
 2e0:	00000a13          	addi	x20,x0,0
	addi x21, zero, 0
 2e4:	00000a93          	addi	x21,x0,0
	addi x22, zero, 0
 2e8:	00000b13          	addi	x22,x0,0
	addi x23, zero, 0
 2ec:	00000b93          	addi	x23,x0,0
	addi x24, zero, 0
 2f0:	00000c13          	addi	x24,x0,0
	addi x25, zero, 0
 2f4:	00000c93          	addi	x25,x0,0
	addi x26, zero, 0
 2f8:	00000d13          	addi	x26,x0,0
	addi x27, zero, 0
 2fc:	00000d93          	addi	x27,x0,0
	addi x28, zero, 0
 300:	00000e13          	addi	x28,x0,0
	addi x29, zero, 0
 304:	00000e93          	addi	x29,x0,0
	addi x30, zero, 0
 308:	00000f13          	addi	x30,x0,0
	addi x31, zero, 0
 30c:	00000f93          	addi	x31,x0,0

	/* 7. 开启机器级中断 */
	li      t0, 8
 310:	00800293          	addi	x5,x0,8
	csrrs   zero, mstatus, t0
 314:	3002a073          	csrrs	x0,mstatus,x5

	/* 8. 设置定时器中断 Mask */
	li a0, timer_irq_mask
 318:	15000537          	lui	x10,0x15000
	li a1, 0x8
 31c:	00800593          	addi	x11,x0,8
	sw a1,0(a0)
 320:	00b52023          	sw	x11,0(x10) # 15000000 <timer_irq_mask>
	.global n ## _ret; \
	n ## _ret:
#endif

	/* 9. 跳转到主程序 app() */
	TEST(app)
 324:	15000537          	lui	x10,0x15000
 328:	00450513          	addi	x10,x10,4 # 15000004 <timer_irq_val>
 32c:	000185b7          	lui	x11,0x18
 330:	6a058593          	addi	x11,x11,1696 # 186a0 <__bss_end+0x17698>
 334:	00b52023          	sw	x11,0(x10)
 338:	5180006f          	jal	x0,850 <app>

0000033c <app_ret>:

	/* 栈指针初始化已移至开头，此处删除旧代码 */
	
	/* GP 初始化已移至开头，保留 TP 初始化 */
	lui gp, %hi(0xdeadbeef)
 33c:	deadc1b7          	lui	x3,0xdeadc
	addi gp, gp, %lo(0xdeadbeef)
 340:	eef18193          	addi	x3,x3,-273 # deadbeef <pulp__FC+0xdeadbef0>
	addi tp, gp, 0
 344:	00018213          	addi	x4,x3,0 # 800 <__global_pointer$>

00000348 <fast_exit>:
	/* call multest C code */
	jal ra,multest
#endif
fast_exit:
	/* print "DONE\n" */
	lui a0,print_port>>12
 348:	10000537          	lui	x10,0x10000
	addi a1,zero,'D'
 34c:	04400593          	addi	x11,x0,68
	addi a2,zero,'O'
 350:	04f00613          	addi	x12,x0,79
	addi a3,zero,'N'
 354:	04e00693          	addi	x13,x0,78
	addi a4,zero,'E'
 358:	04500713          	addi	x14,x0,69
	addi a5,zero,'\n'
 35c:	00a00793          	addi	x15,x0,10
	sw a1,0(a0)
 360:	00b52023          	sw	x11,0(x10) # 10000000 <print_port>
	sw a2,0(a0)
 364:	00c52023          	sw	x12,0(x10)
	sw a3,0(a0)
 368:	00d52023          	sw	x13,0(x10)
	sw a4,0(a0)
 36c:	00e52023          	sw	x14,0(x10)
	sw a5,0(a0)
 370:	00f52023          	sw	x15,0(x10)


	li a0, test_ret_val
 374:	20000537          	lui	x10,0x20000
	lw a1, test_results
 378:	00000597          	auipc	x11,0x0
 37c:	c885a583          	lw	x11,-888(x11) # 0 <__irq_base_vector>
	sw a1,0(a0)
 380:	00b52023          	sw	x11,0(x10) # 20000000 <test_ret_val>

	wfi  /* we are done */
 384:	10500073          	wfi

00000388 <print_chr>:
#include "firmware.h"

#define OUTPORT 0x10000000

void print_chr(char ch)
{
 388:	fe010113          	addi	x2,x2,-32 # fffe0 <_stack_top+0x7ffe0>
 38c:	00812e23          	sw	x8,28(x2)
 390:	02010413          	addi	x8,x2,32
 394:	00050793          	addi	x15,x10,0
 398:	fef407a3          	sb	x15,-17(x8)
    *((volatile uint32_t *)OUTPORT) = ch;
 39c:	100007b7          	lui	x15,0x10000
 3a0:	fef44703          	lbu	x14,-17(x8)
 3a4:	00e7a023          	sw	x14,0(x15) # 10000000 <print_port>
}
 3a8:	00000013          	addi	x0,x0,0
 3ac:	01c12403          	lw	x8,28(x2)
 3b0:	02010113          	addi	x2,x2,32
 3b4:	00008067          	jalr	x0,0(x1)

000003b8 <print_str>:

void print_str(const char *p)
{
 3b8:	fe010113          	addi	x2,x2,-32
 3bc:	00812e23          	sw	x8,28(x2)
 3c0:	02010413          	addi	x8,x2,32
 3c4:	fea42623          	sw	x10,-20(x8)
    while (*p != 0)
 3c8:	01c0006f          	jal	x0,3e4 <print_str+0x2c>
        *((volatile uint32_t *)OUTPORT) = *(p++);
 3cc:	fec42783          	lw	x15,-20(x8)
 3d0:	00178713          	addi	x14,x15,1
 3d4:	fee42623          	sw	x14,-20(x8)
 3d8:	0007c703          	lbu	x14,0(x15)
 3dc:	100007b7          	lui	x15,0x10000
 3e0:	00e7a023          	sw	x14,0(x15) # 10000000 <print_port>
    while (*p != 0)
 3e4:	fec42783          	lw	x15,-20(x8)
 3e8:	0007c783          	lbu	x15,0(x15)
 3ec:	fe0790e3          	bne	x15,x0,3cc <print_str+0x14>
}
 3f0:	00000013          	addi	x0,x0,0
 3f4:	01c12403          	lw	x8,28(x2)
 3f8:	02010113          	addi	x2,x2,32
 3fc:	00008067          	jalr	x0,0(x1)

00000400 <print_dec>:

void print_dec(unsigned int val)
{
 400:	fd010113          	addi	x2,x2,-48
 404:	02812623          	sw	x8,44(x2)
 408:	03010413          	addi	x8,x2,48
 40c:	fca42e23          	sw	x10,-36(x8)
    char buffer[10];
    char *p = buffer;
 410:	fe040793          	addi	x15,x8,-32
 414:	fef42623          	sw	x15,-20(x8)
    while (val || p == buffer) {
 418:	0340006f          	jal	x0,44c <print_dec+0x4c>
        *(p++) = val % 10;
 41c:	fdc42703          	lw	x14,-36(x8)
 420:	00a00793          	addi	x15,x0,10
 424:	02f776b3          	remu	x13,x14,x15
 428:	fec42783          	lw	x15,-20(x8)
 42c:	00178713          	addi	x14,x15,1
 430:	fee42623          	sw	x14,-20(x8)
 434:	0ff6f713          	andi	x14,x13,255
 438:	00e78023          	sb	x14,0(x15)
        val = val / 10;
 43c:	fdc42703          	lw	x14,-36(x8)
 440:	00a00793          	addi	x15,x0,10
 444:	02f757b3          	divu	x15,x14,x15
 448:	fcf42e23          	sw	x15,-36(x8)
    while (val || p == buffer) {
 44c:	fdc42783          	lw	x15,-36(x8)
 450:	fc0796e3          	bne	x15,x0,41c <print_dec+0x1c>
 454:	fe040793          	addi	x15,x8,-32
 458:	fec42703          	lw	x14,-20(x8)
 45c:	fcf700e3          	beq	x14,x15,41c <print_dec+0x1c>
    }
    while (p != buffer) {
 460:	0240006f          	jal	x0,484 <print_dec+0x84>
        *((volatile uint32_t *)OUTPORT) = '0' + *(--p);
 464:	fec42783          	lw	x15,-20(x8)
 468:	fff78793          	addi	x15,x15,-1
 46c:	fef42623          	sw	x15,-20(x8)
 470:	fec42783          	lw	x15,-20(x8)
 474:	0007c783          	lbu	x15,0(x15)
 478:	03078713          	addi	x14,x15,48
 47c:	100007b7          	lui	x15,0x10000
 480:	00e7a023          	sw	x14,0(x15) # 10000000 <print_port>
    while (p != buffer) {
 484:	fe040793          	addi	x15,x8,-32
 488:	fec42703          	lw	x14,-20(x8)
 48c:	fcf71ce3          	bne	x14,x15,464 <print_dec+0x64>
    }
}
 490:	00000013          	addi	x0,x0,0
 494:	02c12403          	lw	x8,44(x2)
 498:	03010113          	addi	x2,x2,48
 49c:	00008067          	jalr	x0,0(x1)

000004a0 <print_hex>:

void print_hex(unsigned int val, int digits)
{
 4a0:	fd010113          	addi	x2,x2,-48
 4a4:	02812623          	sw	x8,44(x2)
 4a8:	03010413          	addi	x8,x2,48
 4ac:	fca42e23          	sw	x10,-36(x8)
 4b0:	fcb42c23          	sw	x11,-40(x8)
    for (int i = (4 * digits) - 4; i >= 0; i -= 4)
 4b4:	fd842783          	lw	x15,-40(x8)
 4b8:	fff78793          	addi	x15,x15,-1
 4bc:	00279793          	slli	x15,x15,0x2
 4c0:	fef42623          	sw	x15,-20(x8)
 4c4:	0340006f          	jal	x0,4f8 <print_hex+0x58>
        *((volatile uint32_t *)OUTPORT) = "0123456789ABCDEF"[(val >> i) % 16];
 4c8:	fdc42703          	lw	x14,-36(x8)
 4cc:	fec42783          	lw	x15,-20(x8)
 4d0:	00f757b3          	srl	x15,x14,x15
 4d4:	00f7f713          	andi	x14,x15,15
 4d8:	55018793          	addi	x15,x3,1360 # d50 <timeout_msg+0x1e>
 4dc:	00f707b3          	add	x15,x14,x15
 4e0:	0007c703          	lbu	x14,0(x15)
 4e4:	100007b7          	lui	x15,0x10000
 4e8:	00e7a023          	sw	x14,0(x15) # 10000000 <print_port>
    for (int i = (4 * digits) - 4; i >= 0; i -= 4)
 4ec:	fec42783          	lw	x15,-20(x8)
 4f0:	ffc78793          	addi	x15,x15,-4
 4f4:	fef42623          	sw	x15,-20(x8)
 4f8:	fec42783          	lw	x15,-20(x8)
 4fc:	fc07d6e3          	bge	x15,x0,4c8 <print_hex+0x28>
}
 500:	00000013          	addi	x0,x0,0
 504:	02c12403          	lw	x8,44(x2)
 508:	03010113          	addi	x2,x2,48
 50c:	00008067          	jalr	x0,0(x1)

00000510 <stats_print_dec>:
// means.

#include "firmware.h"

static void stats_print_dec(unsigned int val, int digits, bool zero_pad)
{
 510:	fb010113          	addi	x2,x2,-80
 514:	04112623          	sw	x1,76(x2)
 518:	04812423          	sw	x8,72(x2)
 51c:	05010413          	addi	x8,x2,80
 520:	faa42e23          	sw	x10,-68(x8)
 524:	fab42c23          	sw	x11,-72(x8)
 528:	00060793          	addi	x15,x12,0
 52c:	faf40ba3          	sb	x15,-73(x8)
    char buffer[32];
    char *p = buffer;
 530:	fcc40793          	addi	x15,x8,-52
 534:	fef42623          	sw	x15,-20(x8)
    while (val || digits > 0) {
 538:	0780006f          	jal	x0,5b0 <stats_print_dec+0xa0>
	if (val)
 53c:	fbc42783          	lw	x15,-68(x8)
 540:	02078863          	beq	x15,x0,570 <stats_print_dec+0x60>
	    *(p++) = '0' + val % 10;
 544:	fbc42703          	lw	x14,-68(x8)
 548:	00a00793          	addi	x15,x0,10
 54c:	02f777b3          	remu	x15,x14,x15
 550:	0ff7f713          	andi	x14,x15,255
 554:	fec42783          	lw	x15,-20(x8)
 558:	00178693          	addi	x13,x15,1
 55c:	fed42623          	sw	x13,-20(x8)
 560:	03070713          	addi	x14,x14,48
 564:	0ff77713          	andi	x14,x14,255
 568:	00e78023          	sb	x14,0(x15)
 56c:	0280006f          	jal	x0,594 <stats_print_dec+0x84>
	else
	    *(p++) = zero_pad ? '0' : ' ';
 570:	fb744783          	lbu	x15,-73(x8)
 574:	00078663          	beq	x15,x0,580 <stats_print_dec+0x70>
 578:	03000713          	addi	x14,x0,48
 57c:	0080006f          	jal	x0,584 <stats_print_dec+0x74>
 580:	02000713          	addi	x14,x0,32
 584:	fec42783          	lw	x15,-20(x8)
 588:	00178693          	addi	x13,x15,1
 58c:	fed42623          	sw	x13,-20(x8)
 590:	00e78023          	sb	x14,0(x15)
	val = val / 10;
 594:	fbc42703          	lw	x14,-68(x8)
 598:	00a00793          	addi	x15,x0,10
 59c:	02f757b3          	divu	x15,x14,x15
 5a0:	faf42e23          	sw	x15,-68(x8)
	digits--;
 5a4:	fb842783          	lw	x15,-72(x8)
 5a8:	fff78793          	addi	x15,x15,-1
 5ac:	faf42c23          	sw	x15,-72(x8)
    while (val || digits > 0) {
 5b0:	fbc42783          	lw	x15,-68(x8)
 5b4:	f80794e3          	bne	x15,x0,53c <stats_print_dec+0x2c>
 5b8:	fb842783          	lw	x15,-72(x8)
 5bc:	f8f040e3          	blt	x0,x15,53c <stats_print_dec+0x2c>
    }
    while (p != buffer) {
 5c0:	0580006f          	jal	x0,618 <stats_print_dec+0x108>
	if (p[-1] == ' ' && p[-2] == ' ')
 5c4:	fec42783          	lw	x15,-20(x8)
 5c8:	fff78793          	addi	x15,x15,-1
 5cc:	0007c703          	lbu	x14,0(x15)
 5d0:	02000793          	addi	x15,x0,32
 5d4:	02f71463          	bne	x14,x15,5fc <stats_print_dec+0xec>
 5d8:	fec42783          	lw	x15,-20(x8)
 5dc:	ffe78793          	addi	x15,x15,-2
 5e0:	0007c703          	lbu	x14,0(x15)
 5e4:	02000793          	addi	x15,x0,32
 5e8:	00f71a63          	bne	x14,x15,5fc <stats_print_dec+0xec>
	    p[-1] = '.';
 5ec:	fec42783          	lw	x15,-20(x8)
 5f0:	fff78793          	addi	x15,x15,-1
 5f4:	02e00713          	addi	x14,x0,46
 5f8:	00e78023          	sb	x14,0(x15)
	print_chr(*(--p));
 5fc:	fec42783          	lw	x15,-20(x8)
 600:	fff78793          	addi	x15,x15,-1
 604:	fef42623          	sw	x15,-20(x8)
 608:	fec42783          	lw	x15,-20(x8)
 60c:	0007c783          	lbu	x15,0(x15)
 610:	00078513          	addi	x10,x15,0
 614:	d75ff0ef          	jal	x1,388 <print_chr>
    while (p != buffer) {
 618:	fcc40793          	addi	x15,x8,-52
 61c:	fec42703          	lw	x14,-20(x8)
 620:	faf712e3          	bne	x14,x15,5c4 <stats_print_dec+0xb4>
    }
}
 624:	00000013          	addi	x0,x0,0
 628:	04c12083          	lw	x1,76(x2)
 62c:	04812403          	lw	x8,72(x2)
 630:	05010113          	addi	x2,x2,80
 634:	00008067          	jalr	x0,0(x1)

00000638 <init_stats>:

void init_stats(void)
{
 638:	fe010113          	addi	x2,x2,-32
 63c:	00812e23          	sw	x8,28(x2)
 640:	02010413          	addi	x8,x2,32
    unsigned int pcmr = 1; /* global enable without saturation */
 644:	00100793          	addi	x15,x0,1
 648:	fef42623          	sw	x15,-20(x8)
    unsigned int pcer = 3; /* cycles and instr count enable */
 64c:	00300793          	addi	x15,x0,3
 650:	fef42423          	sw	x15,-24(x8)
    __asm__ volatile("csrw 0x7e0, %0" ::"r"(pcer));
 654:	fe842783          	lw	x15,-24(x8)
 658:	7e079073          	csrrw	x0,0x7e0,x15
    __asm__ volatile("csrw 0x7e1, %0" ::"r"(pcmr));
 65c:	fec42783          	lw	x15,-20(x8)
 660:	7e179073          	csrrw	x0,0x7e1,x15
}
 664:	00000013          	addi	x0,x0,0
 668:	01c12403          	lw	x8,28(x2)
 66c:	02010113          	addi	x2,x2,32
 670:	00008067          	jalr	x0,0(x1)

00000674 <stats>:

void stats(void)
{
 674:	fe010113          	addi	x2,x2,-32
 678:	00112e23          	sw	x1,28(x2)
 67c:	00812c23          	sw	x8,24(x2)
 680:	02010413          	addi	x8,x2,32
    unsigned int num_cycles, num_instr;
    /* ideally we could use this */
    // __asm__ volatile ("rdcycle %0; rdinstret %1;" : "=r"(num_cycles),
    // "=r"(num_instr));
    /* riscy specific */
    __asm__ volatile("csrr %0, 0x780" : "=r"(num_cycles));
 684:	780027f3          	csrrs	x15,pccr0,x0
 688:	fef42623          	sw	x15,-20(x8)
    __asm__ volatile("csrr %0, 0x781" : "=r"(num_instr));
 68c:	781027f3          	csrrs	x15,pccr1,x0
 690:	fef42423          	sw	x15,-24(x8)
    print_str("Cycle counter ........");
 694:	56418513          	addi	x10,x3,1380 # d64 <timeout_msg+0x32>
 698:	d21ff0ef          	jal	x1,3b8 <print_str>
    stats_print_dec(num_cycles, 8, false);
 69c:	00000613          	addi	x12,x0,0
 6a0:	00800593          	addi	x11,x0,8
 6a4:	fec42503          	lw	x10,-20(x8)
 6a8:	e69ff0ef          	jal	x1,510 <stats_print_dec>
    print_str("\nInstruction counter ..");
 6ac:	57c18513          	addi	x10,x3,1404 # d7c <timeout_msg+0x4a>
 6b0:	d09ff0ef          	jal	x1,3b8 <print_str>
    stats_print_dec(num_instr, 8, false);
 6b4:	00000613          	addi	x12,x0,0
 6b8:	00800593          	addi	x11,x0,8
 6bc:	fe842503          	lw	x10,-24(x8)
 6c0:	e51ff0ef          	jal	x1,510 <stats_print_dec>
    print_str("\nCPI: ");
 6c4:	59418513          	addi	x10,x3,1428 # d94 <timeout_msg+0x62>
 6c8:	cf1ff0ef          	jal	x1,3b8 <print_str>
    stats_print_dec((num_cycles / num_instr), 0, false);
 6cc:	fec42703          	lw	x14,-20(x8)
 6d0:	fe842783          	lw	x15,-24(x8)
 6d4:	02f757b3          	divu	x15,x14,x15
 6d8:	00000613          	addi	x12,x0,0
 6dc:	00000593          	addi	x11,x0,0
 6e0:	00078513          	addi	x10,x15,0
 6e4:	e2dff0ef          	jal	x1,510 <stats_print_dec>
    print_str(".");
 6e8:	59c18513          	addi	x10,x3,1436 # d9c <timeout_msg+0x6a>
 6ec:	ccdff0ef          	jal	x1,3b8 <print_str>
    stats_print_dec(((100 * num_cycles) / num_instr) % 100, 2, true);
 6f0:	fec42703          	lw	x14,-20(x8)
 6f4:	06400793          	addi	x15,x0,100
 6f8:	02f70733          	mul	x14,x14,x15
 6fc:	fe842783          	lw	x15,-24(x8)
 700:	02f75733          	divu	x14,x14,x15
 704:	06400793          	addi	x15,x0,100
 708:	02f777b3          	remu	x15,x14,x15
 70c:	00100613          	addi	x12,x0,1
 710:	00200593          	addi	x11,x0,2
 714:	00078513          	addi	x10,x15,0
 718:	df9ff0ef          	jal	x1,510 <stats_print_dec>
    print_str("\n");
 71c:	5a018513          	addi	x10,x3,1440 # da0 <timeout_msg+0x6e>
 720:	c99ff0ef          	jal	x1,3b8 <print_str>
}
 724:	00000013          	addi	x0,x0,0
 728:	01c12083          	lw	x1,28(x2)
 72c:	01812403          	lw	x8,24(x2)
 730:	02010113          	addi	x2,x2,32
 734:	00008067          	jalr	x0,0(x1)

00000738 <init_data>:
// =============================================================
//  Part 5: 初始化与主程序
// =============================================================

// 初始化数据
void init_data() {
 738:	fe010113          	addi	x2,x2,-32
 73c:	00812e23          	sw	x8,28(x2)
 740:	02010413          	addi	x8,x2,32
    // 初始化全部为0
    for(int i=0; i<MAX_FFT_SIZE; i++) twiddle_table[i] = 0;
 744:	fe042623          	sw	x0,-20(x8)
 748:	0280006f          	jal	x0,770 <init_data+0x38>
 74c:	000017b7          	lui	x15,0x1
 750:	fec42703          	lw	x14,-20(x8)
 754:	00271713          	slli	x14,x14,0x2
 758:	80878793          	addi	x15,x15,-2040 # 808 <twiddle_table>
 75c:	00f707b3          	add	x15,x14,x15
 760:	0007a023          	sw	x0,0(x15)
 764:	fec42783          	lw	x15,-20(x8)
 768:	00178793          	addi	x15,x15,1
 76c:	fef42623          	sw	x15,-20(x8)
 770:	fec42703          	lw	x14,-20(x8)
 774:	1ff00793          	addi	x15,x0,511
 778:	fce7dae3          	bge	x15,x14,74c <init_data+0x14>

    twiddle_table[1] = COMBINE(32767, 0);       // W_2^0
 77c:	000017b7          	lui	x15,0x1
 780:	80878793          	addi	x15,x15,-2040 # 808 <twiddle_table>
 784:	7fff0737          	lui	x14,0x7fff0
 788:	00e7a223          	sw	x14,4(x15)
    twiddle_table[2] = COMBINE(32767, 0);       // W_4^0
 78c:	000017b7          	lui	x15,0x1
 790:	80878793          	addi	x15,x15,-2040 # 808 <twiddle_table>
 794:	7fff0737          	lui	x14,0x7fff0
 798:	00e7a423          	sw	x14,8(x15)
    twiddle_table[3] = COMBINE(0, -32767);      // W_4^1
 79c:	000017b7          	lui	x15,0x1
 7a0:	80878793          	addi	x15,x15,-2040 # 808 <twiddle_table>
 7a4:	00008737          	lui	x14,0x8
 7a8:	00170713          	addi	x14,x14,1 # 8001 <__bss_end+0x6ff9>
 7ac:	00e7a623          	sw	x14,12(x15)
    twiddle_table[4] = COMBINE(32767, 0);       // W_8^0
 7b0:	000017b7          	lui	x15,0x1
 7b4:	80878793          	addi	x15,x15,-2040 # 808 <twiddle_table>
 7b8:	7fff0737          	lui	x14,0x7fff0
 7bc:	00e7a823          	sw	x14,16(x15)
    twiddle_table[5] = COMBINE(23170, -23170);  // W_8^1
 7c0:	000017b7          	lui	x15,0x1
 7c4:	80878793          	addi	x15,x15,-2040 # 808 <twiddle_table>
 7c8:	5a82a737          	lui	x14,0x5a82a
 7cc:	57e70713          	addi	x14,x14,1406 # 5a82a57e <test_ret_val+0x3a82a57e>
 7d0:	00e7aa23          	sw	x14,20(x15)
    twiddle_table[6] = COMBINE(0, -32767);      // W_8^2
 7d4:	000017b7          	lui	x15,0x1
 7d8:	80878793          	addi	x15,x15,-2040 # 808 <twiddle_table>
 7dc:	00008737          	lui	x14,0x8
 7e0:	00170713          	addi	x14,x14,1 # 8001 <__bss_end+0x6ff9>
 7e4:	00e7ac23          	sw	x14,24(x15)
    twiddle_table[7] = COMBINE(-23170, -23170); // W_8^3
 7e8:	000017b7          	lui	x15,0x1
 7ec:	80878793          	addi	x15,x15,-2040 # 808 <twiddle_table>
 7f0:	a57ea737          	lui	x14,0xa57ea
 7f4:	57e70713          	addi	x14,x14,1406 # a57ea57e <pulp__FC+0xa57ea57f>
 7f8:	00e7ae23          	sw	x14,28(x15)

    // 初始化输入数据
    for(int i=0; i<N; i++) {
 7fc:	fe042423          	sw	x0,-24(x8)
 800:	0340006f          	jal	x0,834 <twiddle_table+0x2c>
        data_out[i] = COMBINE(i*100, 0); 
 804:	fe842703          	lw	x14,-24(x8)
 808:	06400793          	addi	x15,x0,100
 80c:	02f707b3          	mul	x15,x14,x15
 810:	01079713          	slli	x14,x15,0x10
 814:	fe842683          	lw	x13,-24(x8)
 818:	00269693          	slli	x13,x13,0x2
 81c:	00800793          	addi	x15,x0,8
 820:	00f687b3          	add	x15,x13,x15
 824:	00e7a023          	sw	x14,0(x15)
    for(int i=0; i<N; i++) {
 828:	fe842783          	lw	x15,-24(x8)
 82c:	00178793          	addi	x15,x15,1
 830:	fef42423          	sw	x15,-24(x8)
 834:	00402783          	lw	x15,4(x0) # 4 <N>
 838:	fe842703          	lw	x14,-24(x8)
 83c:	fcf744e3          	blt	x14,x15,804 <__global_pointer$+0x4>
    }
}
 840:	00000013          	addi	x0,x0,0
 844:	01c12403          	lw	x8,28(x2)
 848:	02010113          	addi	x2,x2,32
 84c:	00008067          	jalr	x0,0(x1)

00000850 <app>:

int app() {
 850:	f9010113          	addi	x2,x2,-112
 854:	06112623          	sw	x1,108(x2)
 858:	06812423          	sw	x8,104(x2)
 85c:	07010413          	addi	x8,x2,112
    init_data();
 860:	ed9ff0ef          	jal	x1,738 <init_data>
    print_str("Starting Hybrid FFT (II=1, 8x8 8-Bank Mode)...\n");
 864:	5a418513          	addi	x10,x3,1444 # da4 <timeout_msg+0x72>
 868:	b51ff0ef          	jal	x1,3b8 <print_str>

    // --- 1. 定义指向物理 Bank 的指针 ---
    // i3_load (Input A) -> mem_1 -> Bank 1
    volatile int *ptr_in_a = BANK1_BASE;
 86c:	000807b7          	lui	x15,0x80
 870:	fcf42223          	sw	x15,-60(x8)
    
    // i5_load (Input B) -> mem_2 -> Bank 2
    volatile int *ptr_in_b = BANK2_BASE;
 874:	001007b7          	lui	x15,0x100
 878:	fcf42023          	sw	x15,-64(x8)

    // i7_load (Weight)  -> mem_3 -> Bank 3
    volatile int *ptr_w    = BANK3_BASE;
 87c:	001807b7          	lui	x15,0x180
 880:	faf42e23          	sw	x15,-68(x8)

    // i43_store (Out A) -> mem_4 -> Bank 4
    volatile int *ptr_out_a = BANK4_BASE;
 884:	002007b7          	lui	x15,0x200
 888:	faf42c23          	sw	x15,-72(x8)

    // i45_store (Out B) -> mem_5 -> Bank 5
    volatile int *ptr_out_b = BANK5_BASE;
 88c:	002807b7          	lui	x15,0x280
 890:	faf42a23          	sw	x15,-76(x8)


    // --- 2. 设置 CGRA 硬件参数 ---
    const int HW_LATENCY = 30; // 假设延迟，可根据仿真微调
 894:	01e00793          	addi	x15,x0,30
 898:	faf42823          	sw	x15,-80(x8)
    const int HW_II = 1;       // 映射结果确认 II=1
 89c:	00100793          	addi	x15,x0,1
 8a0:	faf42623          	sw	x15,-84(x8)

    int basedist = 1;
 8a4:	00100793          	addi	x15,x0,1
 8a8:	fef42623          	sw	x15,-20(x8)

    // --- FFT 外层循环 (级数) ---
    for (int BlockSize = 2; BlockSize <= N; BlockSize <<= 1) {
 8ac:	00200793          	addi	x15,x0,2
 8b0:	fef42423          	sw	x15,-24(x8)
 8b4:	2c00006f          	jal	x0,b74 <app+0x324>
        
        int batch_count = 0;
 8b8:	fe042223          	sw	x0,-28(x8)
        
        // --- 3. Data Marshalling (数据分发到各 Bank) ---
        for (int i = 0; i < N; i += BlockSize) {
 8bc:	fe042023          	sw	x0,-32(x8)
 8c0:	0f00006f          	jal	x0,9b0 <app+0x160>
            for (int j = i, n = 0; n < basedist; j++, n++) {
 8c4:	fe042783          	lw	x15,-32(x8)
 8c8:	fcf42e23          	sw	x15,-36(x8)
 8cc:	fc042c23          	sw	x0,-40(x8)
 8d0:	0c40006f          	jal	x0,994 <app+0x144>
                int k = j + basedist;
 8d4:	fdc42703          	lw	x14,-36(x8)
 8d8:	fec42783          	lw	x15,-20(x8)
 8dc:	00f707b3          	add	x15,x14,x15
 8e0:	faf42023          	sw	x15,-96(x8)
                int table_index = basedist + n;
 8e4:	fec42703          	lw	x14,-20(x8)
 8e8:	fd842783          	lw	x15,-40(x8)
 8ec:	00f707b3          	add	x15,x14,x15
 8f0:	f8f42e23          	sw	x15,-100(x8)
                
                // Input A (上路) -> Bank 1
                ptr_in_a[batch_count] = data_out[j];
 8f4:	fe442783          	lw	x15,-28(x8)
 8f8:	00279793          	slli	x15,x15,0x2
 8fc:	fc442703          	lw	x14,-60(x8)
 900:	00f707b3          	add	x15,x14,x15
 904:	fdc42683          	lw	x13,-36(x8)
 908:	00269693          	slli	x13,x13,0x2
 90c:	00800713          	addi	x14,x0,8
 910:	00e68733          	add	x14,x13,x14
 914:	00072703          	lw	x14,0(x14)
 918:	00e7a023          	sw	x14,0(x15) # 280000 <_stack_top+0x200000>
                
                // Input B (下路) -> Bank 2
                ptr_in_b[batch_count] = data_out[k];
 91c:	fe442783          	lw	x15,-28(x8)
 920:	00279793          	slli	x15,x15,0x2
 924:	fc042703          	lw	x14,-64(x8)
 928:	00f707b3          	add	x15,x14,x15
 92c:	fa042683          	lw	x13,-96(x8)
 930:	00269693          	slli	x13,x13,0x2
 934:	00800713          	addi	x14,x0,8
 938:	00e68733          	add	x14,x13,x14
 93c:	00072703          	lw	x14,0(x14)
 940:	00e7a023          	sw	x14,0(x15)
                
                // Weight -> Bank 3
                ptr_w[batch_count] = twiddle_table[table_index];
 944:	fe442783          	lw	x15,-28(x8)
 948:	00279793          	slli	x15,x15,0x2
 94c:	fbc42703          	lw	x14,-68(x8)
 950:	00f707b3          	add	x15,x14,x15
 954:	00001737          	lui	x14,0x1
 958:	f9c42683          	lw	x13,-100(x8)
 95c:	00269693          	slli	x13,x13,0x2
 960:	80870713          	addi	x14,x14,-2040 # 808 <twiddle_table>
 964:	00e68733          	add	x14,x13,x14
 968:	00072703          	lw	x14,0(x14)
 96c:	00e7a023          	sw	x14,0(x15)
                
                batch_count++;
 970:	fe442783          	lw	x15,-28(x8)
 974:	00178793          	addi	x15,x15,1
 978:	fef42223          	sw	x15,-28(x8)
            for (int j = i, n = 0; n < basedist; j++, n++) {
 97c:	fdc42783          	lw	x15,-36(x8)
 980:	00178793          	addi	x15,x15,1
 984:	fcf42e23          	sw	x15,-36(x8)
 988:	fd842783          	lw	x15,-40(x8)
 98c:	00178793          	addi	x15,x15,1
 990:	fcf42c23          	sw	x15,-40(x8)
 994:	fd842703          	lw	x14,-40(x8)
 998:	fec42783          	lw	x15,-20(x8)
 99c:	f2f74ce3          	blt	x14,x15,8d4 <app+0x84>
        for (int i = 0; i < N; i += BlockSize) {
 9a0:	fe042703          	lw	x14,-32(x8)
 9a4:	fe842783          	lw	x15,-24(x8)
 9a8:	00f707b3          	add	x15,x14,x15
 9ac:	fef42023          	sw	x15,-32(x8)
 9b0:	00402783          	lw	x15,4(x0) # 4 <N>
 9b4:	fe042703          	lw	x14,-32(x8)
 9b8:	f0f746e3          	blt	x14,x15,8c4 <app+0x74>
            }
        }

        // --- 4. 配置 CGRA 端口 (写入 Bank 基地址) ---
        MMIO_WRITE(PORT_IN_A_ADDR,   (int)ptr_in_a);
 9bc:	004007b7          	lui	x15,0x400
 9c0:	04478793          	addi	x15,x15,68 # 400044 <_stack_top+0x380044>
 9c4:	fc442703          	lw	x14,-60(x8)
 9c8:	00e7a023          	sw	x14,0(x15)
        MMIO_WRITE(PORT_IN_B_ADDR,   (int)ptr_in_b);
 9cc:	004007b7          	lui	x15,0x400
 9d0:	fc042703          	lw	x14,-64(x8)
 9d4:	00e7a023          	sw	x14,0(x15) # 400000 <_stack_top+0x380000>
        MMIO_WRITE(PORT_WEIGHT_ADDR, (int)ptr_w);
 9d8:	004007b7          	lui	x15,0x400
 9dc:	05078793          	addi	x15,x15,80 # 400050 <_stack_top+0x380050>
 9e0:	fbc42703          	lw	x14,-68(x8)
 9e4:	00e7a023          	sw	x14,0(x15)
        MMIO_WRITE(PORT_OUT_A_ADDR,  (int)ptr_out_a);
 9e8:	004007b7          	lui	x15,0x400
 9ec:	00c78793          	addi	x15,x15,12 # 40000c <_stack_top+0x38000c>
 9f0:	fb842703          	lw	x14,-72(x8)
 9f4:	00e7a023          	sw	x14,0(x15)
        MMIO_WRITE(PORT_OUT_B_ADDR,  (int)ptr_out_b);
 9f8:	004007b7          	lui	x15,0x400
 9fc:	00478793          	addi	x15,x15,4 # 400004 <_stack_top+0x380004>
 a00:	fb442703          	lw	x14,-76(x8)
 a04:	00e7a023          	sw	x14,0(x15)

        // --- 5. 设置运行时间 ---
        int exec_cycles = HW_LATENCY + (batch_count - 1) * HW_II;
 a08:	fe442783          	lw	x15,-28(x8)
 a0c:	fff78713          	addi	x14,x15,-1
 a10:	fac42783          	lw	x15,-84(x8)
 a14:	02f707b3          	mul	x15,x14,x15
 a18:	fb042703          	lw	x14,-80(x8)
 a1c:	00f707b3          	add	x15,x14,x15
 a20:	faf42423          	sw	x15,-88(x8)
        MMIO_WRITE(CGRA_LOOP_CNT_ADDR, exec_cycles);
 a24:	004007b7          	lui	x15,0x400
 a28:	06078793          	addi	x15,x15,96 # 400060 <_stack_top+0x380060>
 a2c:	fa842703          	lw	x14,-88(x8)
 a30:	00e7a023          	sw	x14,0(x15)

        // --- 6. 启动硬件 ---
        MMIO_WRITE(CGRA_ENABLE_ADDR, 1);
 a34:	004007b7          	lui	x15,0x400
 a38:	06c78793          	addi	x15,x15,108 # 40006c <_stack_top+0x38006c>
 a3c:	00100713          	addi	x14,x0,1
 a40:	00e7a023          	sw	x14,0(x15)
        
        // --- 7. 轮询等待结束 ---
        while (MMIO_READ(CGRA_DONE_ADDR) != 1);
 a44:	00000013          	addi	x0,x0,0
 a48:	004007b7          	lui	x15,0x400
 a4c:	06478793          	addi	x15,x15,100 # 400064 <_stack_top+0x380064>
 a50:	0007a703          	lw	x14,0(x15)
 a54:	00100793          	addi	x15,x0,1
 a58:	fef718e3          	bne	x14,x15,a48 <app+0x1f8>

        // --- 8. 停止与复位 ---
        MMIO_WRITE(CGRA_ENABLE_ADDR, 0);
 a5c:	004007b7          	lui	x15,0x400
 a60:	06c78793          	addi	x15,x15,108 # 40006c <_stack_top+0x38006c>
 a64:	0007a023          	sw	x0,0(x15)
        MMIO_WRITE(CGRA_RESET_ADDR, 1);
 a68:	004007b7          	lui	x15,0x400
 a6c:	06878793          	addi	x15,x15,104 # 400068 <_stack_top+0x380068>
 a70:	00100713          	addi	x14,x0,1
 a74:	00e7a023          	sw	x14,0(x15)
        volatile int dummy = 0; dummy++; 
 a78:	f8042c23          	sw	x0,-104(x8)
 a7c:	f9842783          	lw	x15,-104(x8)
 a80:	00178793          	addi	x15,x15,1
 a84:	f8f42c23          	sw	x15,-104(x8)
        MMIO_WRITE(CGRA_RESET_ADDR, 0);
 a88:	004007b7          	lui	x15,0x400
 a8c:	06878793          	addi	x15,x15,104 # 400068 <_stack_top+0x380068>
 a90:	0007a023          	sw	x0,0(x15)


        // --- 9. Data Writeback (从 Output Banks 取回结果) ---
        batch_count = 0;
 a94:	fe042223          	sw	x0,-28(x8)
        for (int i = 0; i < N; i += BlockSize) {
 a98:	fc042a23          	sw	x0,-44(x8)
 a9c:	0b40006f          	jal	x0,b50 <app+0x300>
            for (int j = i, n = 0; n < basedist; j++, n++) {
 aa0:	fd442783          	lw	x15,-44(x8)
 aa4:	fcf42823          	sw	x15,-48(x8)
 aa8:	fc042623          	sw	x0,-52(x8)
 aac:	0880006f          	jal	x0,b34 <app+0x2e4>
                int k = j + basedist;
 ab0:	fd042703          	lw	x14,-48(x8)
 ab4:	fec42783          	lw	x15,-20(x8)
 ab8:	00f707b3          	add	x15,x14,x15
 abc:	faf42223          	sw	x15,-92(x8)
                
                // Out A (上路) -> 来自 Bank 4
                data_out[j] = ptr_out_a[batch_count];
 ac0:	fe442783          	lw	x15,-28(x8)
 ac4:	00279793          	slli	x15,x15,0x2
 ac8:	fb842703          	lw	x14,-72(x8)
 acc:	00f707b3          	add	x15,x14,x15
 ad0:	0007a703          	lw	x14,0(x15)
 ad4:	fd042683          	lw	x13,-48(x8)
 ad8:	00269693          	slli	x13,x13,0x2
 adc:	00800793          	addi	x15,x0,8
 ae0:	00f687b3          	add	x15,x13,x15
 ae4:	00e7a023          	sw	x14,0(x15)
                
                // Out B (下路) -> 来自 Bank 5
                data_out[k] = ptr_out_b[batch_count];
 ae8:	fe442783          	lw	x15,-28(x8)
 aec:	00279793          	slli	x15,x15,0x2
 af0:	fb442703          	lw	x14,-76(x8)
 af4:	00f707b3          	add	x15,x14,x15
 af8:	0007a703          	lw	x14,0(x15)
 afc:	fa442683          	lw	x13,-92(x8)
 b00:	00269693          	slli	x13,x13,0x2
 b04:	00800793          	addi	x15,x0,8
 b08:	00f687b3          	add	x15,x13,x15
 b0c:	00e7a023          	sw	x14,0(x15)
                
                batch_count++;
 b10:	fe442783          	lw	x15,-28(x8)
 b14:	00178793          	addi	x15,x15,1
 b18:	fef42223          	sw	x15,-28(x8)
            for (int j = i, n = 0; n < basedist; j++, n++) {
 b1c:	fd042783          	lw	x15,-48(x8)
 b20:	00178793          	addi	x15,x15,1
 b24:	fcf42823          	sw	x15,-48(x8)
 b28:	fcc42783          	lw	x15,-52(x8)
 b2c:	00178793          	addi	x15,x15,1
 b30:	fcf42623          	sw	x15,-52(x8)
 b34:	fcc42703          	lw	x14,-52(x8)
 b38:	fec42783          	lw	x15,-20(x8)
 b3c:	f6f74ae3          	blt	x14,x15,ab0 <app+0x260>
        for (int i = 0; i < N; i += BlockSize) {
 b40:	fd442703          	lw	x14,-44(x8)
 b44:	fe842783          	lw	x15,-24(x8)
 b48:	00f707b3          	add	x15,x14,x15
 b4c:	fcf42a23          	sw	x15,-44(x8)
 b50:	00402783          	lw	x15,4(x0) # 4 <N>
 b54:	fd442703          	lw	x14,-44(x8)
 b58:	f4f744e3          	blt	x14,x15,aa0 <app+0x250>
            }
        }

        basedist <<= 1;
 b5c:	fec42783          	lw	x15,-20(x8)
 b60:	00179793          	slli	x15,x15,0x1
 b64:	fef42623          	sw	x15,-20(x8)
    for (int BlockSize = 2; BlockSize <= N; BlockSize <<= 1) {
 b68:	fe842783          	lw	x15,-24(x8)
 b6c:	00179793          	slli	x15,x15,0x1
 b70:	fef42423          	sw	x15,-24(x8)
 b74:	00402783          	lw	x15,4(x0) # 4 <N>
 b78:	fe842703          	lw	x14,-24(x8)
 b7c:	d2e7dee3          	bge	x15,x14,8b8 <app+0x68>
    }

    print_str("FFT Done.\n");
 b80:	5d418513          	addi	x10,x3,1492 # dd4 <timeout_msg+0xa2>
 b84:	835ff0ef          	jal	x1,3b8 <print_str>
    // 验证打印
    for(int i=0; i<N; i++) {
 b88:	fc042423          	sw	x0,-56(x8)
 b8c:	0880006f          	jal	x0,c14 <app+0x3c4>
        print_str("Out[");
 b90:	5e018513          	addi	x10,x3,1504 # de0 <timeout_msg+0xae>
 b94:	825ff0ef          	jal	x1,3b8 <print_str>
        print_dec(i);
 b98:	fc842783          	lw	x15,-56(x8)
 b9c:	00078513          	addi	x10,x15,0
 ba0:	861ff0ef          	jal	x1,400 <print_dec>
        print_str("]: ");
 ba4:	5e818513          	addi	x10,x3,1512 # de8 <timeout_msg+0xb6>
 ba8:	811ff0ef          	jal	x1,3b8 <print_str>
        print_dec(GET_REAL(data_out[i]));
 bac:	fc842703          	lw	x14,-56(x8)
 bb0:	00271713          	slli	x14,x14,0x2
 bb4:	00800793          	addi	x15,x0,8
 bb8:	00f707b3          	add	x15,x14,x15
 bbc:	0007a783          	lw	x15,0(x15)
 bc0:	4107d793          	srai	x15,x15,0x10
 bc4:	01079793          	slli	x15,x15,0x10
 bc8:	4107d793          	srai	x15,x15,0x10
 bcc:	00078513          	addi	x10,x15,0
 bd0:	831ff0ef          	jal	x1,400 <print_dec>
        print_str(" + ");
 bd4:	5ec18513          	addi	x10,x3,1516 # dec <timeout_msg+0xba>
 bd8:	fe0ff0ef          	jal	x1,3b8 <print_str>
        print_dec(GET_IMAG(data_out[i]));
 bdc:	fc842703          	lw	x14,-56(x8)
 be0:	00271713          	slli	x14,x14,0x2
 be4:	00800793          	addi	x15,x0,8
 be8:	00f707b3          	add	x15,x14,x15
 bec:	0007a783          	lw	x15,0(x15)
 bf0:	01079793          	slli	x15,x15,0x10
 bf4:	4107d793          	srai	x15,x15,0x10
 bf8:	00078513          	addi	x10,x15,0
 bfc:	805ff0ef          	jal	x1,400 <print_dec>
        print_str("i\n");
 c00:	5f018513          	addi	x10,x3,1520 # df0 <timeout_msg+0xbe>
 c04:	fb4ff0ef          	jal	x1,3b8 <print_str>
    for(int i=0; i<N; i++) {
 c08:	fc842783          	lw	x15,-56(x8)
 c0c:	00178793          	addi	x15,x15,1
 c10:	fcf42423          	sw	x15,-56(x8)
 c14:	00402783          	lw	x15,4(x0) # 4 <N>
 c18:	fc842703          	lw	x14,-56(x8)
 c1c:	f6f74ae3          	blt	x14,x15,b90 <app+0x340>
    }
    
    return 0;
 c20:	00000793          	addi	x15,x0,0
 c24:	00078513          	addi	x10,x15,0
 c28:	06c12083          	lw	x1,108(x2)
 c2c:	06812403          	lw	x8,104(x2)
 c30:	07010113          	addi	x2,x2,112
 c34:	00008067          	jalr	x0,0(x1)

Disassembly of section .legacy_irq:

00000c38 <.legacy_irq>:
	j vector_table
 c38:	bc8ff06f          	jal	x0,0 <__irq_base_vector>
	j __no_irq_handler
 c3c:	d48ff06f          	jal	x0,184 <__mem_start>
	j __no_irq_handler
 c40:	d44ff06f          	jal	x0,184 <__mem_start>
	j vector_table_timer
 c44:	bd8ff06f          	jal	x0,1c <vector_table_timer>

Disassembly of section .Pulp_Chip.Info:

00000000 <.Pulp_Chip.Info>:
	j sw_irq_handler /* ecall, illegal insn and data prohibited */
   0:	000a                	0xa
   2:	0000                	unimp
	j __no_irq_handler
   4:	0038                	c.addi4spn	x14,x2,8
   6:	0000                	unimp
	j __no_irq_handler
   8:	0001                	c.nop
   a:	0000                	unimp
	j __no_irq_handler
   c:	7550                	c.flw	f12,44(x10)
   e:	706c                	c.flw	f11,100(x8)
	j __no_irq_handler
  10:	495f 666e 006f      	0x6f666e495f
	j __no_irq_handler
  16:	70696863          	bltu	x18,x6,726 <stats+0xb2>
	j __no_irq_handler
  1a:	6e3d                	c.lui	x28,0xf
	j timer_irq_handler
  1c:	20656e6f          	jal	x28,56222 <__bss_end+0x5521a>
	j __no_irq_handler
  20:	3d757063          	bgeu	x10,x23,3e0 <print_str+0x28>
	j __no_irq_handler
  24:	6f6e                	c.flwsp	f30,216(x2)
  26:	656e                	c.flwsp	f10,216(x2)
	j __no_irq_handler
  28:	7020                	c.flw	f8,96(x8)
  2a:	3d65                	c.jal	fffffee2 <pulp__FC+0xfffffee3>
	j __no_irq_handler
  2c:	312d                	c.jal	fffffc56 <pulp__FC+0xfffffc57>
  2e:	6620                	c.flw	f8,72(x12)
	j __no_irq_handler
  30:	312d3d63          	p.bneimm	x26,-14,34a <fast_exit+0x2>
	j __no_irq_handler
  34:	6c20                	c.flw	f8,88(x8)
  36:	3d32                	c.fldsp	f26,296(x2)
	j __no_irq_handler
  38:	312d                	c.jal	fffffc62 <pulp__FC+0xfffffc63>
  3a:	6c20                	c.flw	f8,88(x8)
	j __no_irq_handler
  3c:	6331                	c.lui	x6,0xc
  3e:	3d6c                	c.fld	f11,248(x10)
	j __no_irq_handler
  40:	312d                	c.jal	fffffc6a <pulp__FC+0xfffffc6b>
  42:	6c20                	c.flw	f8,88(x8)
	j __no_irq_handler
  44:	6631                	c.lui	x12,0xc
  46:	312d3d63          	p.bneimm	x26,-14,360 <fast_exit+0x18>
	j __no_irq_handler
  4a:	0000                	unimp
	...
