
firmware/firmware.elf:     file format elf32-littleriscv


Disassembly of section .vectors:

00000000 <__irq_base_vector>:
.set test_ret_val, 0x20000000

.section .vectors, "ax"
.option norvc
vector_table:
	j sw_irq_handler /* ecall, illegal insn and data prohibited */
   0:	1940006f          	jal	x0,194 <sw_irq_handler>
	j __no_irq_handler
   4:	1800006f          	jal	x0,184 <__mem_start>
	j __no_irq_handler
   8:	17c0006f          	jal	x0,184 <__mem_start>
	j __no_irq_handler
   c:	1780006f          	jal	x0,184 <__mem_start>
	j __no_irq_handler
  10:	1740006f          	jal	x0,184 <__mem_start>
	j __no_irq_handler
  14:	1700006f          	jal	x0,184 <__mem_start>
	j __no_irq_handler
  18:	16c0006f          	jal	x0,184 <__mem_start>

0000001c <vector_table_timer>:
vector_table_timer:
	j timer_irq_handler
  1c:	1fc0006f          	jal	x0,218 <timer_irq_handler>
	j __no_irq_handler
  20:	1640006f          	jal	x0,184 <__mem_start>
	j __no_irq_handler
  24:	1600006f          	jal	x0,184 <__mem_start>
	j __no_irq_handler
  28:	15c0006f          	jal	x0,184 <__mem_start>
	j __no_irq_handler
  2c:	1580006f          	jal	x0,184 <__mem_start>
	j __no_irq_handler
  30:	1540006f          	jal	x0,184 <__mem_start>
	j __no_irq_handler
  34:	1500006f          	jal	x0,184 <__mem_start>
	j __no_irq_handler
  38:	14c0006f          	jal	x0,184 <__mem_start>
	j __no_irq_handler
  3c:	1480006f          	jal	x0,184 <__mem_start>
	j __no_irq_handler
  40:	1440006f          	jal	x0,184 <__mem_start>
	j __no_irq_handler
  44:	1400006f          	jal	x0,184 <__mem_start>
	j __no_irq_handler
  48:	13c0006f          	jal	x0,184 <__mem_start>
	j __no_irq_handler
  4c:	1380006f          	jal	x0,184 <__mem_start>
	j __no_irq_handler
  50:	1340006f          	jal	x0,184 <__mem_start>
	j __no_irq_handler
  54:	1300006f          	jal	x0,184 <__mem_start>
	j __no_irq_handler
  58:	12c0006f          	jal	x0,184 <__mem_start>
	j __no_irq_handler
  5c:	1280006f          	jal	x0,184 <__mem_start>
	j __no_irq_handler
  60:	1240006f          	jal	x0,184 <__mem_start>
	j __no_irq_handler
  64:	1200006f          	jal	x0,184 <__mem_start>
	j __no_irq_handler
  68:	11c0006f          	jal	x0,184 <__mem_start>
	j __no_irq_handler
  6c:	1180006f          	jal	x0,184 <__mem_start>
	j __no_irq_handler
  70:	1140006f          	jal	x0,184 <__mem_start>
	j __no_irq_handler
  74:	1100006f          	jal	x0,184 <__mem_start>
	j __no_irq_handler
  78:	10c0006f          	jal	x0,184 <__mem_start>
	j __no_irq_handler
  7c:	1080006f          	jal	x0,184 <__mem_start>
	j __no_irq_handler
  80:	1040006f          	jal	x0,184 <__mem_start>
	j __no_irq_handler
  84:	1000006f          	jal	x0,184 <__mem_start>
	j __no_irq_handler
  88:	0fc0006f          	jal	x0,184 <__mem_start>
	j __no_irq_handler
  8c:	0f80006f          	jal	x0,184 <__mem_start>
	j __no_irq_handler
  90:	0f40006f          	jal	x0,184 <__mem_start>
	j __no_irq_handler
  94:	0f00006f          	jal	x0,184 <__mem_start>
	j __no_irq_handler
  98:	0ec0006f          	jal	x0,184 <__mem_start>
	j __no_irq_handler
  9c:	0e80006f          	jal	x0,184 <__mem_start>
	j __no_irq_handler
  a0:	0e40006f          	jal	x0,184 <__mem_start>
	j __no_irq_handler
  a4:	0e00006f          	jal	x0,184 <__mem_start>
	j __no_irq_handler
  a8:	0dc0006f          	jal	x0,184 <__mem_start>
	j __no_irq_handler
  ac:	0d80006f          	jal	x0,184 <__mem_start>
	j __no_irq_handler
  b0:	0d40006f          	jal	x0,184 <__mem_start>
	j __no_irq_handler
  b4:	0d00006f          	jal	x0,184 <__mem_start>
	j __no_irq_handler
  b8:	0cc0006f          	jal	x0,184 <__mem_start>
	j __no_irq_handler
  bc:	0c80006f          	jal	x0,184 <__mem_start>
	j __no_irq_handler
  c0:	0c40006f          	jal	x0,184 <__mem_start>
	j __no_irq_handler
  c4:	0c00006f          	jal	x0,184 <__mem_start>
	j __no_irq_handler
  c8:	0bc0006f          	jal	x0,184 <__mem_start>
	j __no_irq_handler
  cc:	0b80006f          	jal	x0,184 <__mem_start>
	j __no_irq_handler
  d0:	0b40006f          	jal	x0,184 <__mem_start>
	j __no_irq_handler
  d4:	0b00006f          	jal	x0,184 <__mem_start>
	j __no_irq_handler
  d8:	0ac0006f          	jal	x0,184 <__mem_start>
	j __no_irq_handler
  dc:	0a80006f          	jal	x0,184 <__mem_start>
	j __no_irq_handler
  e0:	0a40006f          	jal	x0,184 <__mem_start>
	j __no_irq_handler
  e4:	0a00006f          	jal	x0,184 <__mem_start>
	j __no_irq_handler
  e8:	09c0006f          	jal	x0,184 <__mem_start>
	j __no_irq_handler
  ec:	0980006f          	jal	x0,184 <__mem_start>
	j __no_irq_handler
  f0:	0940006f          	jal	x0,184 <__mem_start>
	j __no_irq_handler
  f4:	0900006f          	jal	x0,184 <__mem_start>
	j __no_irq_handler
  f8:	08c0006f          	jal	x0,184 <__mem_start>
	j __no_irq_handler
  fc:	0880006f          	jal	x0,184 <__mem_start>

Disassembly of section .start:

00000100 <__boot_addr-0x80>:
	...

00000180 <__boot_addr>:
	j __no_irq_handler
	j vector_table_timer


.section .start, "ax"
	j start
 180:	0b40006f          	jal	x0,234 <start>

Disassembly of section .text:

00000184 <__mem_start>:
.global print_str


/* exception handling */
__no_irq_handler:
	la a0, no_exception_handler_msg
 184:	00001517          	auipc	x10,0x1
 188:	b5950513          	addi	x10,x10,-1191 # cdd <no_exception_handler_msg>
	jal ra, print_str
 18c:	22c000ef          	jal	x1,3b8 <print_str>
	j __no_irq_handler
 190:	ff5ff06f          	jal	x0,184 <__mem_start>

00000194 <sw_irq_handler>:


sw_irq_handler:
	csrr t0, mcause
 194:	342022f3          	csrrs	x5,mcause,x0
	slli t0, t0, 1  /* shift off the high bit */
 198:	00129293          	slli	x5,x5,0x1
	srli t0, t0, 1
 19c:	0012d293          	srli	x5,x5,0x1
	li t1, 2
 1a0:	00200313          	addi	x6,x0,2
	beq t0, t1, handle_illegal_insn
 1a4:	02628663          	beq	x5,x6,1d0 <handle_illegal_insn>
	li t1, 11
 1a8:	00b00313          	addi	x6,x0,11
	beq t0, t1, handle_ecall
 1ac:	00628863          	beq	x5,x6,1bc <handle_ecall>
	li t1, 3
 1b0:	00300313          	addi	x6,x0,3
	beq t0, t1, handle_ebreak
 1b4:	00628663          	beq	x5,x6,1c0 <handle_ebreak>
	j handle_unknown
 1b8:	0280006f          	jal	x0,1e0 <handle_unknown>

000001bc <handle_ecall>:

handle_ecall:
	/* la a0, ecall_msg */
	/* jal ra, print_str */ /* this is too verbose for now */
	j fail_test
 1bc:	03c0006f          	jal	x0,1f8 <fail_test>

000001c0 <handle_ebreak>:

handle_ebreak:
	la a0, ebreak_msg
 1c0:	00001517          	auipc	x10,0x1
 1c4:	ad850513          	addi	x10,x10,-1320 # c98 <ebreak_msg>
	jal ra, print_str
 1c8:	1f0000ef          	jal	x1,3b8 <print_str>
	j fail_test
 1cc:	02c0006f          	jal	x0,1f8 <fail_test>

000001d0 <handle_illegal_insn>:

handle_illegal_insn:
	la a0, illegal_insn_msg
 1d0:	00001517          	auipc	x10,0x1
 1d4:	a7850513          	addi	x10,x10,-1416 # c48 <illegal_insn_msg>
	jal ra, print_str
 1d8:	1e0000ef          	jal	x1,3b8 <print_str>
	j fail_test
 1dc:	01c0006f          	jal	x0,1f8 <fail_test>

000001e0 <handle_unknown>:

handle_unknown:
	la a0, unknown_msg
 1e0:	00001517          	auipc	x10,0x1
 1e4:	ada50513          	addi	x10,x10,-1318 # cba <unknown_msg>
	jal ra, print_str
 1e8:	1d0000ef          	jal	x1,3b8 <print_str>
	mv a0, t0
 1ec:	00028513          	addi	x10,x5,0
	jal ra, print_chr
 1f0:	198000ef          	jal	x1,388 <print_chr>
	j fail_test
 1f4:	0040006f          	jal	x0,1f8 <fail_test>

000001f8 <fail_test>:

fail_test:
	li a0, 1
 1f8:	00100513          	addi	x10,x0,1
	sw a0, test_results, t1 /* signal failure */
 1fc:	00000317          	auipc	x6,0x0
 200:	e0a32223          	sw	x10,-508(x6) # 0 <__irq_base_vector>
	csrr a0, mepc
 204:	34102573          	csrrs	x10,mepc,x0
	addi a0, a0, 4
 208:	00450513          	addi	x10,x10,4
	csrw mepc, a0
 20c:	34151073          	csrrw	x0,mepc,x10
	mret
 210:	30200073          	mret
	wfi
 214:	10500073          	wfi

00000218 <timer_irq_handler>:

/* when we get a timeout we abort the whole testing procedure */
timer_irq_handler:
	la a0, timeout_msg
 218:	00001517          	auipc	x10,0x1
 21c:	b1a50513          	addi	x10,x10,-1254 # d32 <timeout_msg>
	jal ra, print_str
 220:	198000ef          	jal	x1,3b8 <print_str>
	li a0, 1
 224:	00100513          	addi	x10,x0,1
	sw a0, test_results, t1 /* signal failure */
 228:	00000317          	auipc	x6,0x0
 22c:	dca32c23          	sw	x10,-552(x6) # 0 <__irq_base_vector>
	j fast_exit
 230:	1180006f          	jal	x0,348 <fast_exit>

00000234 <start>:

start:
	/* 1. 初始化全局指针 (Global Pointer) */
.option push
.option norelax
1:	auipc gp, %pcrel_hi(__global_pointer$)
 234:	00000197          	auipc	x3,0x0
	addi  gp, gp, %pcrel_lo(1b)
 238:	5cc18193          	addi	x3,x3,1484 # 800 <__global_pointer$>
.option pop

	/* 2. [关键修改] 尽早初始化栈指针 (Stack Pointer) */
	/* 将栈顶设置在内存高位 (1MB处)，必须在调用任何 C 函数之前完成 */
	lui sp,(1024*1024)>>12 
 23c:	00100137          	lui	x2,0x100

    /* 3. [关键修改] 数据搬运循环 (Copy .data from ROM to RAM) */
    /* 依赖修改后的 link.ld 提供的符号 */
    la a0, _data_lma_start  /* 源地址：Firmware 中的数据位置 */
 240:	00001517          	auipc	x10,0x1
 244:	bb450513          	addi	x10,x10,-1100 # df4 <_data_lma_start>
    la a1, _data_start      /* 目的地址：RAM 中的起始位置 */
 248:	00000597          	auipc	x11,0x0
 24c:	db858593          	addi	x11,x11,-584 # 0 <__irq_base_vector>
    la a2, _data_end        /* 目的地址：RAM 中的结束位置 */
 250:	00000617          	auipc	x12,0x0
 254:	db860613          	addi	x12,x12,-584 # 8 <_data_end>
    
    /* 如果源地址和目的地址相同（极少见情况），则跳过 */
    beq a0, a1, copy_data_done
 258:	00b50e63          	beq	x10,x11,274 <copy_data_done>

0000025c <copy_data_loop>:

copy_data_loop:
    bge a1, a2, copy_data_done /* 如果当前地址 >= 结束地址，完成 */
 25c:	00c5dc63          	bge	x11,x12,274 <copy_data_done>
    lw t0, 0(a0)               /* 从 ROM 读取一个字 */
 260:	00052283          	lw	x5,0(x10)
    sw t0, 0(a1)               /* 写入 RAM 一个字 */
 264:	0055a023          	sw	x5,0(x11)
    addi a0, a0, 4             /* 源指针 +4 */
 268:	00450513          	addi	x10,x10,4
    addi a1, a1, 4             /* 目的指针 +4 */
 26c:	00458593          	addi	x11,x11,4
    j copy_data_loop
 270:	fedff06f          	jal	x0,25c <copy_data_loop>

00000274 <copy_data_done>:

copy_data_done:

	/* 4. 初始化性能计数器 (调用 C 函数) */
	jal ra, init_stats
 274:	3c4000ef          	jal	x1,638 <init_stats>

	/* 5. 清零 BSS 段 (Init bss to zero) */
	li t0, 0
 278:	00000293          	addi	x5,x0,0
	la t1, __bss_start
 27c:	00000317          	auipc	x6,0x0
 280:	d8c30313          	addi	x6,x6,-628 # 8 <_data_end>
	la t2, __bss_end
 284:	00001397          	auipc	x7,0x1
 288:	d8438393          	addi	x7,x7,-636 # 1008 <__bss_end>

0000028c <loop_bss>:

loop_bss:
	bge t1, t2, loop_bss_done
 28c:	00735863          	bge	x6,x7,29c <loop_bss_done>
	sw t0, 0(t1)
 290:	00532023          	sw	x5,0(x6)
	addi t1, t1, 4
 294:	00430313          	addi	x6,x6,4
	j loop_bss
 298:	ff5ff06f          	jal	x0,28c <loop_bss>

0000029c <loop_bss_done>:
loop_bss_done:

	/* 6. 清零所有通用寄存器 (避免 X 态传播) */
	addi x1, zero, 0
 29c:	00000093          	addi	x1,x0,0
	//addi x2, zero, 0
	/* addi x3, zero, 0 */ /* gp 已经初始化，不要清零 */
	addi x4, zero, 0
 2a0:	00000213          	addi	x4,x0,0
	addi x5, zero, 0
 2a4:	00000293          	addi	x5,x0,0
	addi x6, zero, 0
 2a8:	00000313          	addi	x6,x0,0
	addi x7, zero, 0
 2ac:	00000393          	addi	x7,x0,0
	addi x8, zero, 0
 2b0:	00000413          	addi	x8,x0,0
	addi x9, zero, 0
 2b4:	00000493          	addi	x9,x0,0
	addi x10, zero, 0
 2b8:	00000513          	addi	x10,x0,0
	addi x11, zero, 0
 2bc:	00000593          	addi	x11,x0,0
	addi x12, zero, 0
 2c0:	00000613          	addi	x12,x0,0
	addi x13, zero, 0
 2c4:	00000693          	addi	x13,x0,0
	addi x14, zero, 0
 2c8:	00000713          	addi	x14,x0,0
	addi x15, zero, 0
 2cc:	00000793          	addi	x15,x0,0
	addi x16, zero, 0
 2d0:	00000813          	addi	x16,x0,0
	addi x17, zero, 0
 2d4:	00000893          	addi	x17,x0,0
	addi x18, zero, 0
 2d8:	00000913          	addi	x18,x0,0
	addi x19, zero, 0
 2dc:	00000993          	addi	x19,x0,0
	addi x20, zero, 0
 2e0:	00000a13          	addi	x20,x0,0
	addi x21, zero, 0
 2e4:	00000a93          	addi	x21,x0,0
	addi x22, zero, 0
 2e8:	00000b13          	addi	x22,x0,0
	addi x23, zero, 0
 2ec:	00000b93          	addi	x23,x0,0
	addi x24, zero, 0
 2f0:	00000c13          	addi	x24,x0,0
	addi x25, zero, 0
 2f4:	00000c93          	addi	x25,x0,0
	addi x26, zero, 0
 2f8:	00000d13          	addi	x26,x0,0
	addi x27, zero, 0
 2fc:	00000d93          	addi	x27,x0,0
	addi x28, zero, 0
 300:	00000e13          	addi	x28,x0,0
	addi x29, zero, 0
 304:	00000e93          	addi	x29,x0,0
	addi x30, zero, 0
 308:	00000f13          	addi	x30,x0,0
	addi x31, zero, 0
 30c:	00000f93          	addi	x31,x0,0

	/* 7. 开启机器级中断 */
	li      t0, 8
 310:	00800293          	addi	x5,x0,8
	csrrs   zero, mstatus, t0
 314:	3002a073          	csrrs	x0,mstatus,x5

	/* 8. 设置定时器中断 Mask */
	li a0, timer_irq_mask
 318:	15000537          	lui	x10,0x15000
	li a1, 0x8
 31c:	00800593          	addi	x11,x0,8
	sw a1,0(a0)
 320:	00b52023          	sw	x11,0(x10) # 15000000 <timer_irq_mask>
	.global n ## _ret; \
	n ## _ret:
#endif

	/* 9. 跳转到主程序 app() */
	TEST(app)
 324:	15000537          	lui	x10,0x15000
 328:	00450513          	addi	x10,x10,4 # 15000004 <timer_irq_val>
 32c:	000185b7          	lui	x11,0x18
 330:	6a058593          	addi	x11,x11,1696 # 186a0 <__bss_end+0x17698>
 334:	00b52023          	sw	x11,0(x10)
 338:	5180006f          	jal	x0,850 <app>

0000033c <app_ret>:

	/* 栈指针初始化已移至开头，此处删除旧代码 */
	
	/* GP 初始化已移至开头，保留 TP 初始化 */
	lui gp, %hi(0xdeadbeef)
 33c:	deadc1b7          	lui	x3,0xdeadc
	addi gp, gp, %lo(0xdeadbeef)
 340:	eef18193          	addi	x3,x3,-273 # deadbeef <pulp__FC+0xdeadbef0>
	addi tp, gp, 0
 344:	00018213          	addi	x4,x3,0 # 800 <__global_pointer$>

00000348 <fast_exit>:
	/* call multest C code */
	jal ra,multest
#endif
fast_exit:
	/* print "DONE\n" */
	lui a0,print_port>>12
 348:	10000537          	lui	x10,0x10000
	addi a1,zero,'D'
 34c:	04400593          	addi	x11,x0,68
	addi a2,zero,'O'
 350:	04f00613          	addi	x12,x0,79
	addi a3,zero,'N'
 354:	04e00693          	addi	x13,x0,78
	addi a4,zero,'E'
 358:	04500713          	addi	x14,x0,69
	addi a5,zero,'\n'
 35c:	00a00793          	addi	x15,x0,10
	sw a1,0(a0)
 360:	00b52023          	sw	x11,0(x10) # 10000000 <print_port>
	sw a2,0(a0)
 364:	00c52023          	sw	x12,0(x10)
	sw a3,0(a0)
 368:	00d52023          	sw	x13,0(x10)
	sw a4,0(a0)
 36c:	00e52023          	sw	x14,0(x10)
	sw a5,0(a0)
 370:	00f52023          	sw	x15,0(x10)


	li a0, test_ret_val
 374:	20000537          	lui	x10,0x20000
	lw a1, test_results
 378:	00000597          	auipc	x11,0x0
 37c:	c885a583          	lw	x11,-888(x11) # 0 <__irq_base_vector>
	sw a1,0(a0)
 380:	00b52023          	sw	x11,0(x10) # 20000000 <test_ret_val>

	wfi  /* we are done */
 384:	10500073          	wfi

00000388 <print_chr>:
#include "firmware.h"

#define OUTPORT 0x10000000

void print_chr(char ch)
{
 388:	fe010113          	addi	x2,x2,-32 # fffe0 <_stack_top+0x7ffe0>
 38c:	00812e23          	sw	x8,28(x2)
 390:	02010413          	addi	x8,x2,32
 394:	00050793          	addi	x15,x10,0
 398:	fef407a3          	sb	x15,-17(x8)
    *((volatile uint32_t *)OUTPORT) = ch;
 39c:	100007b7          	lui	x15,0x10000
 3a0:	fef44703          	lbu	x14,-17(x8)
 3a4:	00e7a023          	sw	x14,0(x15) # 10000000 <print_port>
}
 3a8:	00000013          	addi	x0,x0,0
 3ac:	01c12403          	lw	x8,28(x2)
 3b0:	02010113          	addi	x2,x2,32
 3b4:	00008067          	jalr	x0,0(x1)

000003b8 <print_str>:

void print_str(const char *p)
{
 3b8:	fe010113          	addi	x2,x2,-32
 3bc:	00812e23          	sw	x8,28(x2)
 3c0:	02010413          	addi	x8,x2,32
 3c4:	fea42623          	sw	x10,-20(x8)
    while (*p != 0)
 3c8:	01c0006f          	jal	x0,3e4 <print_str+0x2c>
        *((volatile uint32_t *)OUTPORT) = *(p++);
 3cc:	fec42783          	lw	x15,-20(x8)
 3d0:	00178713          	addi	x14,x15,1
 3d4:	fee42623          	sw	x14,-20(x8)
 3d8:	0007c703          	lbu	x14,0(x15)
 3dc:	100007b7          	lui	x15,0x10000
 3e0:	00e7a023          	sw	x14,0(x15) # 10000000 <print_port>
    while (*p != 0)
 3e4:	fec42783          	lw	x15,-20(x8)
 3e8:	0007c783          	lbu	x15,0(x15)
 3ec:	fe0790e3          	bne	x15,x0,3cc <print_str+0x14>
}
 3f0:	00000013          	addi	x0,x0,0
 3f4:	01c12403          	lw	x8,28(x2)
 3f8:	02010113          	addi	x2,x2,32
 3fc:	00008067          	jalr	x0,0(x1)

00000400 <print_dec>:

void print_dec(unsigned int val)
{
 400:	fd010113          	addi	x2,x2,-48
 404:	02812623          	sw	x8,44(x2)
 408:	03010413          	addi	x8,x2,48
 40c:	fca42e23          	sw	x10,-36(x8)
    char buffer[10];
    char *p = buffer;
 410:	fe040793          	addi	x15,x8,-32
 414:	fef42623          	sw	x15,-20(x8)
    while (val || p == buffer) {
 418:	0340006f          	jal	x0,44c <print_dec+0x4c>
        *(p++) = val % 10;
 41c:	fdc42703          	lw	x14,-36(x8)
 420:	00a00793          	addi	x15,x0,10
 424:	02f776b3          	remu	x13,x14,x15
 428:	fec42783          	lw	x15,-20(x8)
 42c:	00178713          	addi	x14,x15,1
 430:	fee42623          	sw	x14,-20(x8)
 434:	0ff6f713          	andi	x14,x13,255
 438:	00e78023          	sb	x14,0(x15)
        val = val / 10;
 43c:	fdc42703          	lw	x14,-36(x8)
 440:	00a00793          	addi	x15,x0,10
 444:	02f757b3          	divu	x15,x14,x15
 448:	fcf42e23          	sw	x15,-36(x8)
    while (val || p == buffer) {
 44c:	fdc42783          	lw	x15,-36(x8)
 450:	fc0796e3          	bne	x15,x0,41c <print_dec+0x1c>
 454:	fe040793          	addi	x15,x8,-32
 458:	fec42703          	lw	x14,-20(x8)
 45c:	fcf700e3          	beq	x14,x15,41c <print_dec+0x1c>
    }
    while (p != buffer) {
 460:	0240006f          	jal	x0,484 <print_dec+0x84>
        *((volatile uint32_t *)OUTPORT) = '0' + *(--p);
 464:	fec42783          	lw	x15,-20(x8)
 468:	fff78793          	addi	x15,x15,-1
 46c:	fef42623          	sw	x15,-20(x8)
 470:	fec42783          	lw	x15,-20(x8)
 474:	0007c783          	lbu	x15,0(x15)
 478:	03078713          	addi	x14,x15,48
 47c:	100007b7          	lui	x15,0x10000
 480:	00e7a023          	sw	x14,0(x15) # 10000000 <print_port>
    while (p != buffer) {
 484:	fe040793          	addi	x15,x8,-32
 488:	fec42703          	lw	x14,-20(x8)
 48c:	fcf71ce3          	bne	x14,x15,464 <print_dec+0x64>
    }
}
 490:	00000013          	addi	x0,x0,0
 494:	02c12403          	lw	x8,44(x2)
 498:	03010113          	addi	x2,x2,48
 49c:	00008067          	jalr	x0,0(x1)

000004a0 <print_hex>:

void print_hex(unsigned int val, int digits)
{
 4a0:	fd010113          	addi	x2,x2,-48
 4a4:	02812623          	sw	x8,44(x2)
 4a8:	03010413          	addi	x8,x2,48
 4ac:	fca42e23          	sw	x10,-36(x8)
 4b0:	fcb42c23          	sw	x11,-40(x8)
    for (int i = (4 * digits) - 4; i >= 0; i -= 4)
 4b4:	fd842783          	lw	x15,-40(x8)
 4b8:	fff78793          	addi	x15,x15,-1
 4bc:	00279793          	slli	x15,x15,0x2
 4c0:	fef42623          	sw	x15,-20(x8)
 4c4:	0340006f          	jal	x0,4f8 <print_hex+0x58>
        *((volatile uint32_t *)OUTPORT) = "0123456789ABCDEF"[(val >> i) % 16];
 4c8:	fdc42703          	lw	x14,-36(x8)
 4cc:	fec42783          	lw	x15,-20(x8)
 4d0:	00f757b3          	srl	x15,x14,x15
 4d4:	00f7f713          	andi	x14,x15,15
 4d8:	55018793          	addi	x15,x3,1360 # d50 <timeout_msg+0x1e>
 4dc:	00f707b3          	add	x15,x14,x15
 4e0:	0007c703          	lbu	x14,0(x15)
 4e4:	100007b7          	lui	x15,0x10000
 4e8:	00e7a023          	sw	x14,0(x15) # 10000000 <print_port>
    for (int i = (4 * digits) - 4; i >= 0; i -= 4)
 4ec:	fec42783          	lw	x15,-20(x8)
 4f0:	ffc78793          	addi	x15,x15,-4
 4f4:	fef42623          	sw	x15,-20(x8)
 4f8:	fec42783          	lw	x15,-20(x8)
 4fc:	fc07d6e3          	bge	x15,x0,4c8 <print_hex+0x28>
}
 500:	00000013          	addi	x0,x0,0
 504:	02c12403          	lw	x8,44(x2)
 508:	03010113          	addi	x2,x2,48
 50c:	00008067          	jalr	x0,0(x1)

00000510 <stats_print_dec>:
// means.

#include "firmware.h"

static void stats_print_dec(unsigned int val, int digits, bool zero_pad)
{
 510:	fb010113          	addi	x2,x2,-80
 514:	04112623          	sw	x1,76(x2)
 518:	04812423          	sw	x8,72(x2)
 51c:	05010413          	addi	x8,x2,80
 520:	faa42e23          	sw	x10,-68(x8)
 524:	fab42c23          	sw	x11,-72(x8)
 528:	00060793          	addi	x15,x12,0
 52c:	faf40ba3          	sb	x15,-73(x8)
    char buffer[32];
    char *p = buffer;
 530:	fcc40793          	addi	x15,x8,-52
 534:	fef42623          	sw	x15,-20(x8)
    while (val || digits > 0) {
 538:	0780006f          	jal	x0,5b0 <stats_print_dec+0xa0>
	if (val)
 53c:	fbc42783          	lw	x15,-68(x8)
 540:	02078863          	beq	x15,x0,570 <stats_print_dec+0x60>
	    *(p++) = '0' + val % 10;
 544:	fbc42703          	lw	x14,-68(x8)
 548:	00a00793          	addi	x15,x0,10
 54c:	02f777b3          	remu	x15,x14,x15
 550:	0ff7f713          	andi	x14,x15,255
 554:	fec42783          	lw	x15,-20(x8)
 558:	00178693          	addi	x13,x15,1
 55c:	fed42623          	sw	x13,-20(x8)
 560:	03070713          	addi	x14,x14,48
 564:	0ff77713          	andi	x14,x14,255
 568:	00e78023          	sb	x14,0(x15)
 56c:	0280006f          	jal	x0,594 <stats_print_dec+0x84>
	else
	    *(p++) = zero_pad ? '0' : ' ';
 570:	fb744783          	lbu	x15,-73(x8)
 574:	00078663          	beq	x15,x0,580 <stats_print_dec+0x70>
 578:	03000713          	addi	x14,x0,48
 57c:	0080006f          	jal	x0,584 <stats_print_dec+0x74>
 580:	02000713          	addi	x14,x0,32
 584:	fec42783          	lw	x15,-20(x8)
 588:	00178693          	addi	x13,x15,1
 58c:	fed42623          	sw	x13,-20(x8)
 590:	00e78023          	sb	x14,0(x15)
	val = val / 10;
 594:	fbc42703          	lw	x14,-68(x8)
 598:	00a00793          	addi	x15,x0,10
 59c:	02f757b3          	divu	x15,x14,x15
 5a0:	faf42e23          	sw	x15,-68(x8)
	digits--;
 5a4:	fb842783          	lw	x15,-72(x8)
 5a8:	fff78793          	addi	x15,x15,-1
 5ac:	faf42c23          	sw	x15,-72(x8)
    while (val || digits > 0) {
 5b0:	fbc42783          	lw	x15,-68(x8)
 5b4:	f80794e3          	bne	x15,x0,53c <stats_print_dec+0x2c>
 5b8:	fb842783          	lw	x15,-72(x8)
 5bc:	f8f040e3          	blt	x0,x15,53c <stats_print_dec+0x2c>
    }
    while (p != buffer) {
 5c0:	0580006f          	jal	x0,618 <stats_print_dec+0x108>
	if (p[-1] == ' ' && p[-2] == ' ')
 5c4:	fec42783          	lw	x15,-20(x8)
 5c8:	fff78793          	addi	x15,x15,-1
 5cc:	0007c703          	lbu	x14,0(x15)
 5d0:	02000793          	addi	x15,x0,32
 5d4:	02f71463          	bne	x14,x15,5fc <stats_print_dec+0xec>
 5d8:	fec42783          	lw	x15,-20(x8)
 5dc:	ffe78793          	addi	x15,x15,-2
 5e0:	0007c703          	lbu	x14,0(x15)
 5e4:	02000793          	addi	x15,x0,32
 5e8:	00f71a63          	bne	x14,x15,5fc <stats_print_dec+0xec>
	    p[-1] = '.';
 5ec:	fec42783          	lw	x15,-20(x8)
 5f0:	fff78793          	addi	x15,x15,-1
 5f4:	02e00713          	addi	x14,x0,46
 5f8:	00e78023          	sb	x14,0(x15)
	print_chr(*(--p));
 5fc:	fec42783          	lw	x15,-20(x8)
 600:	fff78793          	addi	x15,x15,-1
 604:	fef42623          	sw	x15,-20(x8)
 608:	fec42783          	lw	x15,-20(x8)
 60c:	0007c783          	lbu	x15,0(x15)
 610:	00078513          	addi	x10,x15,0
 614:	d75ff0ef          	jal	x1,388 <print_chr>
    while (p != buffer) {
 618:	fcc40793          	addi	x15,x8,-52
 61c:	fec42703          	lw	x14,-20(x8)
 620:	faf712e3          	bne	x14,x15,5c4 <stats_print_dec+0xb4>
    }
}
 624:	00000013          	addi	x0,x0,0
 628:	04c12083          	lw	x1,76(x2)
 62c:	04812403          	lw	x8,72(x2)
 630:	05010113          	addi	x2,x2,80
 634:	00008067          	jalr	x0,0(x1)

00000638 <init_stats>:

void init_stats(void)
{
 638:	fe010113          	addi	x2,x2,-32
 63c:	00812e23          	sw	x8,28(x2)
 640:	02010413          	addi	x8,x2,32
    unsigned int pcmr = 1; /* global enable without saturation */
 644:	00100793          	addi	x15,x0,1
 648:	fef42623          	sw	x15,-20(x8)
    unsigned int pcer = 3; /* cycles and instr count enable */
 64c:	00300793          	addi	x15,x0,3
 650:	fef42423          	sw	x15,-24(x8)
    __asm__ volatile("csrw 0x7e0, %0" ::"r"(pcer));
 654:	fe842783          	lw	x15,-24(x8)
 658:	7e079073          	csrrw	x0,0x7e0,x15
    __asm__ volatile("csrw 0x7e1, %0" ::"r"(pcmr));
 65c:	fec42783          	lw	x15,-20(x8)
 660:	7e179073          	csrrw	x0,0x7e1,x15
}
 664:	00000013          	addi	x0,x0,0
 668:	01c12403          	lw	x8,28(x2)
 66c:	02010113          	addi	x2,x2,32
 670:	00008067          	jalr	x0,0(x1)

00000674 <stats>:

void stats(void)
{
 674:	fe010113          	addi	x2,x2,-32
 678:	00112e23          	sw	x1,28(x2)
 67c:	00812c23          	sw	x8,24(x2)
 680:	02010413          	addi	x8,x2,32
    unsigned int num_cycles, num_instr;
    /* ideally we could use this */
    // __asm__ volatile ("rdcycle %0; rdinstret %1;" : "=r"(num_cycles),
    // "=r"(num_instr));
    /* riscy specific */
    __asm__ volatile("csrr %0, 0x780" : "=r"(num_cycles));
 684:	780027f3          	csrrs	x15,pccr0,x0
 688:	fef42623          	sw	x15,-20(x8)
    __asm__ volatile("csrr %0, 0x781" : "=r"(num_instr));
 68c:	781027f3          	csrrs	x15,pccr1,x0
 690:	fef42423          	sw	x15,-24(x8)
    print_str("Cycle counter ........");
 694:	56418513          	addi	x10,x3,1380 # d64 <timeout_msg+0x32>
 698:	d21ff0ef          	jal	x1,3b8 <print_str>
    stats_print_dec(num_cycles, 8, false);
 69c:	00000613          	addi	x12,x0,0
 6a0:	00800593          	addi	x11,x0,8
 6a4:	fec42503          	lw	x10,-20(x8)
 6a8:	e69ff0ef          	jal	x1,510 <stats_print_dec>
    print_str("\nInstruction counter ..");
 6ac:	57c18513          	addi	x10,x3,1404 # d7c <timeout_msg+0x4a>
 6b0:	d09ff0ef          	jal	x1,3b8 <print_str>
    stats_print_dec(num_instr, 8, false);
 6b4:	00000613          	addi	x12,x0,0
 6b8:	00800593          	addi	x11,x0,8
 6bc:	fe842503          	lw	x10,-24(x8)
 6c0:	e51ff0ef          	jal	x1,510 <stats_print_dec>
    print_str("\nCPI: ");
 6c4:	59418513          	addi	x10,x3,1428 # d94 <timeout_msg+0x62>
 6c8:	cf1ff0ef          	jal	x1,3b8 <print_str>
    stats_print_dec((num_cycles / num_instr), 0, false);
 6cc:	fec42703          	lw	x14,-20(x8)
 6d0:	fe842783          	lw	x15,-24(x8)
 6d4:	02f757b3          	divu	x15,x14,x15
 6d8:	00000613          	addi	x12,x0,0
 6dc:	00000593          	addi	x11,x0,0
 6e0:	00078513          	addi	x10,x15,0
 6e4:	e2dff0ef          	jal	x1,510 <stats_print_dec>
    print_str(".");
 6e8:	59c18513          	addi	x10,x3,1436 # d9c <timeout_msg+0x6a>
 6ec:	ccdff0ef          	jal	x1,3b8 <print_str>
    stats_print_dec(((100 * num_cycles) / num_instr) % 100, 2, true);
 6f0:	fec42703          	lw	x14,-20(x8)
 6f4:	06400793          	addi	x15,x0,100
 6f8:	02f70733          	mul	x14,x14,x15
 6fc:	fe842783          	lw	x15,-24(x8)
 700:	02f75733          	divu	x14,x14,x15
 704:	06400793          	addi	x15,x0,100
 708:	02f777b3          	remu	x15,x14,x15
 70c:	00100613          	addi	x12,x0,1
 710:	00200593          	addi	x11,x0,2
 714:	00078513          	addi	x10,x15,0
 718:	df9ff0ef          	jal	x1,510 <stats_print_dec>
    print_str("\n");
 71c:	5a018513          	addi	x10,x3,1440 # da0 <timeout_msg+0x6e>
 720:	c99ff0ef          	jal	x1,3b8 <print_str>
}
 724:	00000013          	addi	x0,x0,0
 728:	01c12083          	lw	x1,28(x2)
 72c:	01812403          	lw	x8,24(x2)
 730:	02010113          	addi	x2,x2,32
 734:	00008067          	jalr	x0,0(x1)

00000738 <init_data>:
// =============================================================
//  Part 5: 初始化与主程序
// =============================================================

// 初始化数据
void init_data() {
 738:	fe010113          	addi	x2,x2,-32
 73c:	00812e23          	sw	x8,28(x2)
 740:	02010413          	addi	x8,x2,32
    // 初始化全部为0
    for(int i=0; i<MAX_FFT_SIZE; i++) twiddle_table[i] = 0;
 744:	fe042623          	sw	x0,-20(x8)
 748:	0280006f          	jal	x0,770 <init_data+0x38>
 74c:	000017b7          	lui	x15,0x1
 750:	fec42703          	lw	x14,-20(x8)
 754:	00271713          	slli	x14,x14,0x2
 758:	80878793          	addi	x15,x15,-2040 # 808 <twiddle_table>
 75c:	00f707b3          	add	x15,x14,x15
 760:	0007a023          	sw	x0,0(x15)
 764:	fec42783          	lw	x15,-20(x8)
 768:	00178793          	addi	x15,x15,1
 76c:	fef42623          	sw	x15,-20(x8)
 770:	fec42703          	lw	x14,-20(x8)
 774:	1ff00793          	addi	x15,x0,511
 778:	fce7dae3          	bge	x15,x14,74c <init_data+0x14>

    twiddle_table[1] = COMBINE(32767, 0);       // W_2^0
 77c:	000017b7          	lui	x15,0x1
 780:	80878793          	addi	x15,x15,-2040 # 808 <twiddle_table>
 784:	7fff0737          	lui	x14,0x7fff0
 788:	00e7a223          	sw	x14,4(x15)
    twiddle_table[2] = COMBINE(32767, 0);       // W_4^0
 78c:	000017b7          	lui	x15,0x1
 790:	80878793          	addi	x15,x15,-2040 # 808 <twiddle_table>
 794:	7fff0737          	lui	x14,0x7fff0
 798:	00e7a423          	sw	x14,8(x15)
    twiddle_table[3] = COMBINE(0, -32767);      // W_4^1
 79c:	000017b7          	lui	x15,0x1
 7a0:	80878793          	addi	x15,x15,-2040 # 808 <twiddle_table>
 7a4:	00008737          	lui	x14,0x8
 7a8:	00170713          	addi	x14,x14,1 # 8001 <__bss_end+0x6ff9>
 7ac:	00e7a623          	sw	x14,12(x15)
    twiddle_table[4] = COMBINE(32767, 0);       // W_8^0
 7b0:	000017b7          	lui	x15,0x1
 7b4:	80878793          	addi	x15,x15,-2040 # 808 <twiddle_table>
 7b8:	7fff0737          	lui	x14,0x7fff0
 7bc:	00e7a823          	sw	x14,16(x15)
    twiddle_table[5] = COMBINE(23170, -23170);  // W_8^1
 7c0:	000017b7          	lui	x15,0x1
 7c4:	80878793          	addi	x15,x15,-2040 # 808 <twiddle_table>
 7c8:	5a82a737          	lui	x14,0x5a82a
 7cc:	57e70713          	addi	x14,x14,1406 # 5a82a57e <test_ret_val+0x3a82a57e>
 7d0:	00e7aa23          	sw	x14,20(x15)
    twiddle_table[6] = COMBINE(0, -32767);      // W_8^2
 7d4:	000017b7          	lui	x15,0x1
 7d8:	80878793          	addi	x15,x15,-2040 # 808 <twiddle_table>
 7dc:	00008737          	lui	x14,0x8
 7e0:	00170713          	addi	x14,x14,1 # 8001 <__bss_end+0x6ff9>
 7e4:	00e7ac23          	sw	x14,24(x15)
    twiddle_table[7] = COMBINE(-23170, -23170); // W_8^3
 7e8:	000017b7          	lui	x15,0x1
 7ec:	80878793          	addi	x15,x15,-2040 # 808 <twiddle_table>
 7f0:	a57ea737          	lui	x14,0xa57ea
 7f4:	57e70713          	addi	x14,x14,1406 # a57ea57e <pulp__FC+0xa57ea57f>
 7f8:	00e7ae23          	sw	x14,28(x15)

    // 初始化输入数据
    for(int i=0; i<N; i++) {
 7fc:	fe042423          	sw	x0,-24(x8)
 800:	0340006f          	jal	x0,834 <twiddle_table+0x2c>
        data_out[i] = COMBINE(i*100, 0); 
 804:	fe842703          	lw	x14,-24(x8)
 808:	06400793          	addi	x15,x0,100
 80c:	02f707b3          	mul	x15,x14,x15
 810:	01079713          	slli	x14,x15,0x10
 814:	fe842683          	lw	x13,-24(x8)
 818:	00269693          	slli	x13,x13,0x2
 81c:	00800793          	addi	x15,x0,8
 820:	00f687b3          	add	x15,x13,x15
 824:	00e7a023          	sw	x14,0(x15)
    for(int i=0; i<N; i++) {
 828:	fe842783          	lw	x15,-24(x8)
 82c:	00178793          	addi	x15,x15,1
 830:	fef42423          	sw	x15,-24(x8)
 834:	00402783          	lw	x15,4(x0) # 4 <N>
 838:	fe842703          	lw	x14,-24(x8)
 83c:	fcf744e3          	blt	x14,x15,804 <__global_pointer$+0x4>
    }
}
 840:	00000013          	addi	x0,x0,0
 844:	01c12403          	lw	x8,28(x2)
 848:	02010113          	addi	x2,x2,32
 84c:	00008067          	jalr	x0,0(x1)

00000850 <app>:

int app() {
 850:	f9010113          	addi	x2,x2,-112
 854:	06112623          	sw	x1,108(x2)
 858:	06812423          	sw	x8,104(x2)
 85c:	07010413          	addi	x8,x2,112
    init_data();
 860:	ed9ff0ef          	jal	x1,738 <init_data>
    print_str("Starting Hybrid FFT (II=1, 8x8 8-Bank Mode)...\n");
 864:	5a418513          	addi	x10,x3,1444 # da4 <timeout_msg+0x72>
 868:	b51ff0ef          	jal	x1,3b8 <print_str>

    // --- 1. 定义指向物理 Bank 的指针 ---
    // i3_load (Input A) -> mem_1 -> Bank 1
    volatile int *ptr_in_a = BANK1_BASE;
 86c:	000807b7          	lui	x15,0x80
 870:	fcf42223          	sw	x15,-60(x8)
    
    // i5_load (Input B) -> mem_2 -> Bank 2
    volatile int *ptr_in_b = BANK2_BASE;
 874:	001007b7          	lui	x15,0x100
 878:	fcf42023          	sw	x15,-64(x8)

    // i7_load (Weight)  -> mem_3 -> Bank 3
    volatile int *ptr_w    = BANK3_BASE;
 87c:	001807b7          	lui	x15,0x180
 880:	faf42e23          	sw	x15,-68(x8)

    // i43_store (Out A) -> mem_4 -> Bank 4
    volatile int *ptr_out_a = BANK4_BASE;
 884:	002007b7          	lui	x15,0x200
 888:	faf42c23          	sw	x15,-72(x8)

    // i45_store (Out B) -> mem_5 -> Bank 5
    volatile int *ptr_out_b = BANK5_BASE;
 88c:	002807b7          	lui	x15,0x280
 890:	faf42a23          	sw	x15,-76(x8)


    // --- 2. 设置 CGRA 硬件参数 ---
    const int HW_LATENCY = 30; // 假设延迟，可根据仿真微调
 894:	01e00793          	addi	x15,x0,30
 898:	faf42823          	sw	x15,-80(x8)
    const int HW_II = 1;       // 映射结果确认 II=1
 89c:	00100793          	addi	x15,x0,1
 8a0:	faf42623          	sw	x15,-84(x8)

    int basedist = 1;
 8a4:	00100793          	addi	x15,x0,1
 8a8:	fef42623          	sw	x15,-20(x8)

    // --- FFT 外层循环 (级数) ---
    for (int BlockSize = 2; BlockSize <= N; BlockSize <<= 1) {
 8ac:	00200793          	addi	x15,x0,2
 8b0:	fef42423          	sw	x15,-24(x8)
 8b4:	2c00006f          	jal	x0,b74 <app+0x324>
        
        int batch_count = 0;
 8b8:	fe042223          	sw	x0,-28(x8)
        
        // --- 3. Data Marshalling (数据分发到各 Bank) ---
        for (int i = 0; i < N; i += BlockSize) {
 8bc:	fe042023          	sw	x0,-32(x8)
 8c0:	0f00006f          	jal	x0,9b0 <app+0x160>
            for (int j = i, n = 0; n < basedist; j++, n++) {
 8c4:	fe042783          	lw	x15,-32(x8)
 8c8:	fcf42e23          	sw	x15,-36(x8)
 8cc:	fc042c23          	sw	x0,-40(x8)
 8d0:	0c40006f          	jal	x0,994 <app+0x144>
                int k = j + basedist;
 8d4:	fdc42703          	lw	x14,-36(x8)
 8d8:	fec42783          	lw	x15,-20(x8)
 8dc:	00f707b3          	add	x15,x14,x15
 8e0:	faf42023          	sw	x15,-96(x8)
                int table_index = basedist + n;
 8e4:	fec42703          	lw	x14,-20(x8)
 8e8:	fd842783          	lw	x15,-40(x8)
 8ec:	00f707b3          	add	x15,x14,x15
 8f0:	f8f42e23          	sw	x15,-100(x8)
                
                // Input A (上路) -> Bank 1
                ptr_in_a[batch_count] = data_out[j];
 8f4:	fe442783          	lw	x15,-28(x8)
 8f8:	00279793          	slli	x15,x15,0x2
 8fc:	fc442703          	lw	x14,-60(x8)
 900:	00f707b3          	add	x15,x14,x15
 904:	fdc42683          	lw	x13,-36(x8)
 908:	00269693          	slli	x13,x13,0x2
 90c:	00800713          	addi	x14,x0,8
 910:	00e68733          	add	x14,x13,x14
 914:	00072703          	lw	x14,0(x14)
 918:	00e7a023          	sw	x14,0(x15) # 280000 <_stack_top+0x200000>
                
                // Input B (下路) -> Bank 2
                ptr_in_b[batch_count] = data_out[k];
 91c:	fe442783          	lw	x15,-28(x8)
 920:	00279793          	slli	x15,x15,0x2
 924:	fc042703          	lw	x14,-64(x8)
 928:	00f707b3          	add	x15,x14,x15
 92c:	fa042683          	lw	x13,-96(x8)
 930:	00269693          	slli	x13,x13,0x2
 934:	00800713          	addi	x14,x0,8
 938:	00e68733          	add	x14,x13,x14
 93c:	00072703          	lw	x14,0(x14)
 940:	00e7a023          	sw	x14,0(x15)
                
                // Weight -> Bank 3
                ptr_w[batch_count] = twiddle_table[table_index];
 944:	fe442783          	lw	x15,-28(x8)
 948:	00279793          	slli	x15,x15,0x2
 94c:	fbc42703          	lw	x14,-68(x8)
 950:	00f707b3          	add	x15,x14,x15
 954:	00001737          	lui	x14,0x1
 958:	f9c42683          	lw	x13,-100(x8)
 95c:	00269693          	slli	x13,x13,0x2
 960:	80870713          	addi	x14,x14,-2040 # 808 <twiddle_table>
 964:	00e68733          	add	x14,x13,x14
 968:	00072703          	lw	x14,0(x14)
 96c:	00e7a023          	sw	x14,0(x15)
                
                batch_count++;
 970:	fe442783          	lw	x15,-28(x8)
 974:	00178793          	addi	x15,x15,1
 978:	fef42223          	sw	x15,-28(x8)
            for (int j = i, n = 0; n < basedist; j++, n++) {
 97c:	fdc42783          	lw	x15,-36(x8)
 980:	00178793          	addi	x15,x15,1
 984:	fcf42e23          	sw	x15,-36(x8)
 988:	fd842783          	lw	x15,-40(x8)
 98c:	00178793          	addi	x15,x15,1
 990:	fcf42c23          	sw	x15,-40(x8)
 994:	fd842703          	lw	x14,-40(x8)
 998:	fec42783          	lw	x15,-20(x8)
 99c:	f2f74ce3          	blt	x14,x15,8d4 <app+0x84>
        for (int i = 0; i < N; i += BlockSize) {
 9a0:	fe042703          	lw	x14,-32(x8)
 9a4:	fe842783          	lw	x15,-24(x8)
 9a8:	00f707b3          	add	x15,x14,x15
 9ac:	fef42023          	sw	x15,-32(x8)
 9b0:	00402783          	lw	x15,4(x0) # 4 <N>
 9b4:	fe042703          	lw	x14,-32(x8)
 9b8:	f0f746e3          	blt	x14,x15,8c4 <app+0x74>
            }
        }

        // --- 4. 配置 CGRA 端口 (写入 Bank 基地址) ---
        MMIO_WRITE(PORT_IN_A_ADDR,   (int)ptr_in_a);
 9bc:	004007b7          	lui	x15,0x400
 9c0:	04478793          	addi	x15,x15,68 # 400044 <_stack_top+0x380044>
 9c4:	fc442703          	lw	x14,-60(x8)
 9c8:	00e7a023          	sw	x14,0(x15)
        MMIO_WRITE(PORT_IN_B_ADDR,   (int)ptr_in_b);
 9cc:	004007b7          	lui	x15,0x400
 9d0:	fc042703          	lw	x14,-64(x8)
 9d4:	00e7a023          	sw	x14,0(x15) # 400000 <_stack_top+0x380000>
        MMIO_WRITE(PORT_WEIGHT_ADDR, (int)ptr_w);
 9d8:	004007b7          	lui	x15,0x400
 9dc:	05078793          	addi	x15,x15,80 # 400050 <_stack_top+0x380050>
 9e0:	fbc42703          	lw	x14,-68(x8)
 9e4:	00e7a023          	sw	x14,0(x15)
        MMIO_WRITE(PORT_OUT_A_ADDR,  (int)ptr_out_a);
 9e8:	004007b7          	lui	x15,0x400
 9ec:	00c78793          	addi	x15,x15,12 # 40000c <_stack_top+0x38000c>
 9f0:	fb842703          	lw	x14,-72(x8)
 9f4:	00e7a023          	sw	x14,0(x15)
        MMIO_WRITE(PORT_OUT_B_ADDR,  (int)ptr_out_b);
 9f8:	004007b7          	lui	x15,0x400
 9fc:	00478793          	addi	x15,x15,4 # 400004 <_stack_top+0x380004>
 a00:	fb442703          	lw	x14,-76(x8)
 a04:	00e7a023          	sw	x14,0(x15)

        // --- 5. 设置运行时间 ---
        int exec_cycles = HW_LATENCY + (batch_count - 1) * HW_II;
 a08:	fe442783          	lw	x15,-28(x8)
 a0c:	fff78713          	addi	x14,x15,-1
 a10:	fac42783          	lw	x15,-84(x8)
 a14:	02f707b3          	mul	x15,x14,x15
 a18:	fb042703          	lw	x14,-80(x8)
 a1c:	00f707b3          	add	x15,x14,x15
 a20:	faf42423          	sw	x15,-88(x8)
        MMIO_WRITE(CGRA_LOOP_CNT_ADDR, exec_cycles);
 a24:	004007b7          	lui	x15,0x400
 a28:	06078793          	addi	x15,x15,96 # 400060 <_stack_top+0x380060>
 a2c:	fa842703          	lw	x14,-88(x8)
 a30:	00e7a023          	sw	x14,0(x15)

        // --- 6. 启动硬件 ---
        MMIO_WRITE(CGRA_ENABLE_ADDR, 1);
 a34:	004007b7          	lui	x15,0x400
 a38:	06c78793          	addi	x15,x15,108 # 40006c <_stack_top+0x38006c>
 a3c:	00100713          	addi	x14,x0,1
 a40:	00e7a023          	sw	x14,0(x15)
        
        // --- 7. 轮询等待结束 ---
        while (MMIO_READ(CGRA_DONE_ADDR) != 1);
 a44:	00000013          	addi	x0,x0,0
 a48:	004007b7          	lui	x15,0x400
 a4c:	06478793          	addi	x15,x15,100 # 400064 <_stack_top+0x380064>
 a50:	0007a703          	lw	x14,0(x15)
 a54:	00100793          	addi	x15,x0,1
 a58:	fef718e3          	bne	x14,x15,a48 <app+0x1f8>

        // --- 8. 停止与复位 ---
        MMIO_WRITE(CGRA_ENABLE_ADDR, 0);
 a5c:	004007b7          	lui	x15,0x400
 a60:	06c78793          	addi	x15,x15,108 # 40006c <_stack_top+0x38006c>
 a64:	0007a023          	sw	x0,0(x15)
        MMIO_WRITE(CGRA_RESET_ADDR, 1);
 a68:	004007b7          	lui	x15,0x400
 a6c:	06878793          	addi	x15,x15,104 # 400068 <_stack_top+0x380068>
 a70:	00100713          	addi	x14,x0,1
 a74:	00e7a023          	sw	x14,0(x15)
        volatile int dummy = 0; dummy++; 
 a78:	f8042c23          	sw	x0,-104(x8)
 a7c:	f9842783          	lw	x15,-104(x8)
 a80:	00178793          	addi	x15,x15,1
 a84:	f8f42c23          	sw	x15,-104(x8)
        MMIO_WRITE(CGRA_RESET_ADDR, 0);
 a88:	004007b7          	lui	x15,0x400
 a8c:	06878793          	addi	x15,x15,104 # 400068 <_stack_top+0x380068>
 a90:	0007a023          	sw	x0,0(x15)


        // --- 9. Data Writeback (从 Output Banks 取回结果) ---
        batch_count = 0;
 a94:	fe042223          	sw	x0,-28(x8)
        for (int i = 0; i < N; i += BlockSize) {
 a98:	fc042a23          	sw	x0,-44(x8)
 a9c:	0b40006f          	jal	x0,b50 <app+0x300>
            for (int j = i, n = 0; n < basedist; j++, n++) {
 aa0:	fd442783          	lw	x15,-44(x8)
 aa4:	fcf42823          	sw	x15,-48(x8)
 aa8:	fc042623          	sw	x0,-52(x8)
 aac:	0880006f          	jal	x0,b34 <app+0x2e4>
                int k = j + basedist;
 ab0:	fd042703          	lw	x14,-48(x8)
 ab4:	fec42783          	lw	x15,-20(x8)
 ab8:	00f707b3          	add	x15,x14,x15
 abc:	faf42223          	sw	x15,-92(x8)
                
                // Out A (上路) -> 来自 Bank 4
                data_out[j] = ptr_out_a[batch_count];
 ac0:	fe442783          	lw	x15,-28(x8)
 ac4:	00279793          	slli	x15,x15,0x2
 ac8:	fb842703          	lw	x14,-72(x8)
 acc:	00f707b3          	add	x15,x14,x15
 ad0:	0007a703          	lw	x14,0(x15)
 ad4:	fd042683          	lw	x13,-48(x8)
 ad8:	00269693          	slli	x13,x13,0x2
 adc:	00800793          	addi	x15,x0,8
 ae0:	00f687b3          	add	x15,x13,x15
 ae4:	00e7a023          	sw	x14,0(x15)
                
                // Out B (下路) -> 来自 Bank 5
                data_out[k] = ptr_out_b[batch_count];
 ae8:	fe442783          	lw	x15,-28(x8)
 aec:	00279793          	slli	x15,x15,0x2
 af0:	fb442703          	lw	x14,-76(x8)
 af4:	00f707b3          	add	x15,x14,x15
 af8:	0007a703          	lw	x14,0(x15)
 afc:	fa442683          	lw	x13,-92(x8)
 b00:	00269693          	slli	x13,x13,0x2
 b04:	00800793          	addi	x15,x0,8
 b08:	00f687b3          	add	x15,x13,x15
 b0c:	00e7a023          	sw	x14,0(x15)
                
                batch_count++;
 b10:	fe442783          	lw	x15,-28(x8)
 b14:	00178793          	addi	x15,x15,1
 b18:	fef42223          	sw	x15,-28(x8)
            for (int j = i, n = 0; n < basedist; j++, n++) {
 b1c:	fd042783          	lw	x15,-48(x8)
 b20:	00178793          	addi	x15,x15,1
 b24:	fcf42823          	sw	x15,-48(x8)
 b28:	fcc42783          	lw	x15,-52(x8)
 b2c:	00178793          	addi	x15,x15,1
 b30:	fcf42623          	sw	x15,-52(x8)
 b34:	fcc42703          	lw	x14,-52(x8)
 b38:	fec42783          	lw	x15,-20(x8)
 b3c:	f6f74ae3          	blt	x14,x15,ab0 <app+0x260>
        for (int i = 0; i < N; i += BlockSize) {
 b40:	fd442703          	lw	x14,-44(x8)
 b44:	fe842783          	lw	x15,-24(x8)
 b48:	00f707b3          	add	x15,x14,x15
 b4c:	fcf42a23          	sw	x15,-44(x8)
 b50:	00402783          	lw	x15,4(x0) # 4 <N>
 b54:	fd442703          	lw	x14,-44(x8)
 b58:	f4f744e3          	blt	x14,x15,aa0 <app+0x250>
            }
        }

        basedist <<= 1;
 b5c:	fec42783          	lw	x15,-20(x8)
 b60:	00179793          	slli	x15,x15,0x1
 b64:	fef42623          	sw	x15,-20(x8)
    for (int BlockSize = 2; BlockSize <= N; BlockSize <<= 1) {
 b68:	fe842783          	lw	x15,-24(x8)
 b6c:	00179793          	slli	x15,x15,0x1
 b70:	fef42423          	sw	x15,-24(x8)
 b74:	00402783          	lw	x15,4(x0) # 4 <N>
 b78:	fe842703          	lw	x14,-24(x8)
 b7c:	d2e7dee3          	bge	x15,x14,8b8 <app+0x68>
    }

    print_str("FFT Done.\n");
 b80:	5d418513          	addi	x10,x3,1492 # dd4 <timeout_msg+0xa2>
 b84:	835ff0ef          	jal	x1,3b8 <print_str>
    // 验证打印
    for(int i=0; i<N; i++) {
 b88:	fc042423          	sw	x0,-56(x8)
 b8c:	0880006f          	jal	x0,c14 <app+0x3c4>
        print_str("Out[");
 b90:	5e018513          	addi	x10,x3,1504 # de0 <timeout_msg+0xae>
 b94:	825ff0ef          	jal	x1,3b8 <print_str>
        print_dec(i);
 b98:	fc842783          	lw	x15,-56(x8)
 b9c:	00078513          	addi	x10,x15,0
 ba0:	861ff0ef          	jal	x1,400 <print_dec>
        print_str("]: ");
 ba4:	5e818513          	addi	x10,x3,1512 # de8 <timeout_msg+0xb6>
 ba8:	811ff0ef          	jal	x1,3b8 <print_str>
        print_dec(GET_REAL(data_out[i]));
 bac:	fc842703          	lw	x14,-56(x8)
 bb0:	00271713          	slli	x14,x14,0x2
 bb4:	00800793          	addi	x15,x0,8
 bb8:	00f707b3          	add	x15,x14,x15
 bbc:	0007a783          	lw	x15,0(x15)
 bc0:	4107d793          	srai	x15,x15,0x10
 bc4:	01079793          	slli	x15,x15,0x10
 bc8:	4107d793          	srai	x15,x15,0x10
 bcc:	00078513          	addi	x10,x15,0
 bd0:	831ff0ef          	jal	x1,400 <print_dec>
        print_str(" + ");
 bd4:	5ec18513          	addi	x10,x3,1516 # dec <timeout_msg+0xba>
 bd8:	fe0ff0ef          	jal	x1,3b8 <print_str>
        print_dec(GET_IMAG(data_out[i]));
 bdc:	fc842703          	lw	x14,-56(x8)
 be0:	00271713          	slli	x14,x14,0x2
 be4:	00800793          	addi	x15,x0,8
 be8:	00f707b3          	add	x15,x14,x15
 bec:	0007a783          	lw	x15,0(x15)
 bf0:	01079793          	slli	x15,x15,0x10
 bf4:	4107d793          	srai	x15,x15,0x10
 bf8:	00078513          	addi	x10,x15,0
 bfc:	805ff0ef          	jal	x1,400 <print_dec>
        print_str("i\n");
 c00:	5f018513          	addi	x10,x3,1520 # df0 <timeout_msg+0xbe>
 c04:	fb4ff0ef          	jal	x1,3b8 <print_str>
    for(int i=0; i<N; i++) {
 c08:	fc842783          	lw	x15,-56(x8)
 c0c:	00178793          	addi	x15,x15,1
 c10:	fcf42423          	sw	x15,-56(x8)
 c14:	00402783          	lw	x15,4(x0) # 4 <N>
 c18:	fc842703          	lw	x14,-56(x8)
 c1c:	f6f74ae3          	blt	x14,x15,b90 <app+0x340>
    }
    
    return 0;
 c20:	00000793          	addi	x15,x0,0
 c24:	00078513          	addi	x10,x15,0
 c28:	06c12083          	lw	x1,108(x2)
 c2c:	06812403          	lw	x8,104(x2)
 c30:	07010113          	addi	x2,x2,112
 c34:	00008067          	jalr	x0,0(x1)

Disassembly of section .legacy_irq:

00000c38 <.legacy_irq>:
	j vector_table
 c38:	bc8ff06f          	jal	x0,0 <__irq_base_vector>
	j __no_irq_handler
 c3c:	d48ff06f          	jal	x0,184 <__mem_start>
	j __no_irq_handler
 c40:	d44ff06f          	jal	x0,184 <__mem_start>
	j vector_table_timer
 c44:	bd8ff06f          	jal	x0,1c <vector_table_timer>

Disassembly of section .rodata:

00000c48 <illegal_insn_msg>:
 c48:	6c69                	c.lui	x24,0x1a
 c4a:	656c                	c.flw	f11,76(x10)
 c4c:	206c6167          	0x206c6167
 c50:	6e69                	c.lui	x28,0x1a
 c52:	75727473          	csrrci	x8,0x757,4
 c56:	6f697463          	bgeu	x18,x22,133e <__bss_end+0x336>
 c5a:	206e                	c.fldsp	f0,216(x2)
 c5c:	7865                	c.lui	x16,0xffff9
 c5e:	74706563          	bltu	x0,x7,13a8 <__bss_end+0x3a0>
 c62:	6f69                	c.lui	x30,0x1a
 c64:	206e                	c.fldsp	f0,216(x2)
 c66:	6168                	c.flw	f10,68(x10)
 c68:	646e                	c.flwsp	f8,216(x2)
 c6a:	656c                	c.flw	f11,76(x10)
 c6c:	2072                	c.fldsp	f0,280(x2)
 c6e:	6e65                	c.lui	x28,0x19
 c70:	6574                	c.flw	f13,76(x10)
 c72:	6572                	c.flwsp	f10,28(x2)
 c74:	0a64                	c.addi4spn	x9,x2,284
	...

00000c77 <ecall_msg>:
 c77:	6365                	c.lui	x6,0x19
 c79:	6c61                	c.lui	x24,0x18
 c7b:	206c                	c.fld	f11,192(x8)
 c7d:	7865                	c.lui	x16,0xffff9
 c7f:	74706563          	bltu	x0,x7,13c9 <__bss_end+0x3c1>
 c83:	6f69                	c.lui	x30,0x1a
 c85:	206e                	c.fldsp	f0,216(x2)
 c87:	6168                	c.flw	f10,68(x10)
 c89:	646e                	c.flwsp	f8,216(x2)
 c8b:	656c                	c.flw	f11,76(x10)
 c8d:	2072                	c.fldsp	f0,280(x2)
 c8f:	6e65                	c.lui	x28,0x19
 c91:	6574                	c.flw	f13,76(x10)
 c93:	6572                	c.flwsp	f10,28(x2)
 c95:	0a64                	c.addi4spn	x9,x2,284
	...

00000c98 <ebreak_msg>:
 c98:	6265                	c.lui	x4,0x19
 c9a:	6572                	c.flwsp	f10,28(x2)
 c9c:	6b61                	c.lui	x22,0x18
 c9e:	6520                	c.flw	f8,72(x10)
 ca0:	6378                	c.flw	f14,68(x14)
 ca2:	7065                	0x7065
 ca4:	6974                	c.flw	f13,84(x10)
 ca6:	68206e6f          	jal	x28,7328 <__bss_end+0x6320>
 caa:	6e61                	c.lui	x28,0x18
 cac:	6c64                	c.flw	f9,92(x8)
 cae:	7265                	c.lui	x4,0xffff9
 cb0:	6520                	c.flw	f8,72(x10)
 cb2:	746e                	c.flwsp	f8,248(x2)
 cb4:	7265                	c.lui	x4,0xffff9
 cb6:	6465                	c.lui	x8,0x19
 cb8:	000a                	0xa

00000cba <unknown_msg>:
 cba:	6e75                	c.lui	x28,0x1d
 cbc:	776f6e6b          	0x776f6e6b
 cc0:	206e                	c.fldsp	f0,216(x2)
 cc2:	7865                	c.lui	x16,0xffff9
 cc4:	74706563          	bltu	x0,x7,140e <__bss_end+0x406>
 cc8:	6f69                	c.lui	x30,0x1a
 cca:	206e                	c.fldsp	f0,216(x2)
 ccc:	6168                	c.flw	f10,68(x10)
 cce:	646e                	c.flwsp	f8,216(x2)
 cd0:	656c                	c.flw	f11,76(x10)
 cd2:	2072                	c.fldsp	f0,280(x2)
 cd4:	6e65                	c.lui	x28,0x19
 cd6:	6574                	c.flw	f13,76(x10)
 cd8:	6572                	c.flwsp	f10,28(x2)
 cda:	0a64                	c.addi4spn	x9,x2,284
	...

00000cdd <no_exception_handler_msg>:
 cdd:	6f6e                	c.flwsp	f30,216(x2)
 cdf:	6520                	c.flw	f8,72(x10)
 ce1:	6378                	c.flw	f14,68(x14)
 ce3:	7065                	0x7065
 ce5:	6974                	c.flw	f13,84(x10)
 ce7:	68206e6f          	jal	x28,7369 <__bss_end+0x6361>
 ceb:	6e61                	c.lui	x28,0x18
 ced:	6c64                	c.flw	f9,92(x8)
 cef:	7265                	c.lui	x4,0xffff9
 cf1:	6920                	c.flw	f8,80(x10)
 cf3:	736e                	c.flwsp	f6,248(x2)
 cf5:	6174                	c.flw	f13,68(x10)
 cf7:	6c6c                	c.flw	f11,92(x8)
 cf9:	6465                	c.lui	x8,0x19
 cfb:	000a                	0xa

00000cfd <riscv_tests_msg>:
 cfd:	7572                	c.flwsp	f10,60(x2)
 cff:	6e6e                	c.flwsp	f28,216(x2)
 d01:	6e69                	c.lui	x28,0x1a
 d03:	69722067          	0x69722067
 d07:	2d766373          	csrrsi	x6,0x2d7,12
 d0b:	6574                	c.flw	f13,76(x10)
 d0d:	0a737473          	csrrci	x8,0xa7,6
	...

00000d12 <riscv_compliance_tests_msg>:
 d12:	7572                	c.flwsp	f10,60(x2)
 d14:	6e6e                	c.flwsp	f28,216(x2)
 d16:	6e69                	c.lui	x28,0x1a
 d18:	69722067          	0x69722067
 d1c:	2d766373          	csrrsi	x6,0x2d7,12
 d20:	706d6f63          	bltu	x26,x6,143e <__bss_end+0x436>
 d24:	696c                	c.flw	f11,84(x10)
 d26:	6e61                	c.lui	x28,0x18
 d28:	742d6563          	bltu	x26,x2,1472 <__bss_end+0x46a>
 d2c:	7365                	c.lui	x6,0xffff9
 d2e:	7374                	c.flw	f13,100(x14)
 d30:	000a                	0xa

00000d32 <timeout_msg>:
 d32:	0a0a                	c.slli	x20,0x2
 d34:	4554                	c.lw	x13,12(x10)
 d36:	54205453          	fmacex.s.ah	x8,x0,x2
 d3a:	4d49                	c.li	x26,18
 d3c:	4f45                	c.li	x30,17
 d3e:	5455                	c.li	x8,-11
 d40:	202c                	c.fld	f11,64(x8)
 d42:	6261                	c.lui	x4,0x18
 d44:	6974726f          	jal	x4,48bda <__bss_end+0x47bd2>
 d48:	676e                	c.flwsp	f14,216(x2)
 d4a:	2e2e                	c.fldsp	f28,200(x2)
 d4c:	0a2e                	c.slli	x20,0xb
 d4e:	000a                	0xa
 d50:	3130                	c.fld	f12,96(x10)
 d52:	3332                	c.fldsp	f6,296(x2)
 d54:	3534                	c.fld	f13,104(x10)
 d56:	3736                	c.fldsp	f14,360(x2)
 d58:	3938                	c.fld	f14,112(x10)
 d5a:	4241                	c.li	x4,16
 d5c:	46454443          	0x46454443
 d60:	0000                	unimp
 d62:	0000                	unimp
 d64:	6c637943          	fmadd.h	x18,x6,x6,x13
 d68:	2065                	c.jal	e10 <_data_lma_start+0x1c>
 d6a:	6e756f63          	bltu	x10,x7,1468 <__bss_end+0x460>
 d6e:	6574                	c.flw	f13,76(x10)
 d70:	2072                	c.fldsp	f0,280(x2)
 d72:	2e2e                	c.fldsp	f28,200(x2)
 d74:	2e2e                	c.fldsp	f28,200(x2)
 d76:	2e2e                	c.fldsp	f28,200(x2)
 d78:	2e2e                	c.fldsp	f28,200(x2)
 d7a:	0000                	unimp
 d7c:	490a                	c.lwsp	x18,128(x2)
 d7e:	736e                	c.flwsp	f6,248(x2)
 d80:	7274                	c.flw	f13,100(x12)
 d82:	6375                	c.lui	x6,0x1d
 d84:	6974                	c.flw	f13,84(x10)
 d86:	63206e6f          	jal	x28,73b8 <__bss_end+0x63b0>
 d8a:	746e756f          	jal	x10,e84d0 <_stack_top+0x684d0>
 d8e:	7265                	c.lui	x4,0xffff9
 d90:	2e20                	c.fld	f8,88(x12)
 d92:	002e                	0x2e
 d94:	430a                	c.lwsp	x6,128(x2)
 d96:	4950                	c.lw	x12,20(x10)
 d98:	203a                	c.fldsp	f0,392(x2)
 d9a:	0000                	unimp
 d9c:	002e                	0x2e
 d9e:	0000                	unimp
 da0:	000a                	0xa
 da2:	0000                	unimp
 da4:	72617453          	0x72617453
 da8:	6974                	c.flw	f13,84(x10)
 daa:	676e                	c.flwsp	f14,216(x2)
 dac:	4820                	c.lw	x8,80(x8)
 dae:	6279                	c.lui	x4,0x1e
 db0:	6972                	c.flwsp	f18,28(x2)
 db2:	2064                	c.fld	f9,192(x8)
 db4:	4646                	c.lwsp	x12,80(x2)
 db6:	2054                	c.fld	f13,128(x8)
 db8:	4928                	c.lw	x10,80(x10)
 dba:	3d49                	c.jal	c4c <illegal_insn_msg+0x4>
 dbc:	2c31                	c.jal	fd8 <_data_lma_start+0x1e4>
 dbe:	3820                	c.fld	f8,112(x8)
 dc0:	3878                	c.fld	f14,240(x8)
 dc2:	3820                	c.fld	f8,112(x8)
 dc4:	422d                	c.li	x4,11
 dc6:	6e61                	c.lui	x28,0x18
 dc8:	6f4d206b          	0x6f4d206b
 dcc:	6564                	c.flw	f9,76(x10)
 dce:	2e29                	c.jal	10e8 <__bss_end+0xe0>
 dd0:	2e2e                	c.fldsp	f28,200(x2)
 dd2:	000a                	0xa
 dd4:	4646                	c.lwsp	x12,80(x2)
 dd6:	2054                	c.fld	f13,128(x8)
 dd8:	6f44                	c.flw	f9,28(x14)
 dda:	656e                	c.flwsp	f10,216(x2)
 ddc:	0a2e                	c.slli	x20,0xb
 dde:	0000                	unimp
 de0:	5b74754f          	fnmadd.d	f10,f8,f23,f11
 de4:	0000                	unimp
 de6:	0000                	unimp
 de8:	3a5d                	c.jal	79e <init_data+0x66>
 dea:	0020                	c.addi4spn	x8,x2,8
 dec:	2b20                	c.fld	f8,80(x14)
 dee:	0020                	c.addi4spn	x8,x2,8
 df0:	0a69                	c.addi	x20,26
	...

Disassembly of section .data:

00000000 <__data_begin>:
	j sw_irq_handler /* ecall, illegal insn and data prohibited */
   0:	cd15                	c.beqz	x10,3c <vector_table_timer+0x20>
   2:	0008075b          	p.mac	x14,x16,x0,x0

00000004 <N>:
	j __no_irq_handler
   4:	0008                	c.addi4spn	x10,x2,0
	...

Disassembly of section .bss:

00000008 <data_out>:
	...

00000808 <twiddle_table>:
	...

Disassembly of section .Pulp_Chip.Info:

00000000 <.Pulp_Chip.Info>:
	j sw_irq_handler /* ecall, illegal insn and data prohibited */
   0:	000a                	0xa
   2:	0000                	unimp
	j __no_irq_handler
   4:	0038                	c.addi4spn	x14,x2,8
   6:	0000                	unimp
	j __no_irq_handler
   8:	0001                	c.nop
   a:	0000                	unimp
	j __no_irq_handler
   c:	7550                	c.flw	f12,44(x10)
   e:	706c                	c.flw	f11,100(x8)
	j __no_irq_handler
  10:	495f 666e 006f      	0x6f666e495f
	j __no_irq_handler
  16:	70696863          	bltu	x18,x6,726 <stats+0xb2>
	j __no_irq_handler
  1a:	6e3d                	c.lui	x28,0xf
	j timer_irq_handler
  1c:	20656e6f          	jal	x28,56222 <__bss_end+0x5521a>
	j __no_irq_handler
  20:	3d757063          	bgeu	x10,x23,3e0 <print_str+0x28>
	j __no_irq_handler
  24:	6f6e                	c.flwsp	f30,216(x2)
  26:	656e                	c.flwsp	f10,216(x2)
	j __no_irq_handler
  28:	7020                	c.flw	f8,96(x8)
  2a:	3d65                	c.jal	fffffee2 <pulp__FC+0xfffffee3>
	j __no_irq_handler
  2c:	312d                	c.jal	fffffc56 <pulp__FC+0xfffffc57>
  2e:	6620                	c.flw	f8,72(x12)
	j __no_irq_handler
  30:	312d3d63          	p.bneimm	x26,-14,34a <fast_exit+0x2>
	j __no_irq_handler
  34:	6c20                	c.flw	f8,88(x8)
  36:	3d32                	c.fldsp	f26,296(x2)
	j __no_irq_handler
  38:	312d                	c.jal	fffffc62 <pulp__FC+0xfffffc63>
  3a:	6c20                	c.flw	f8,88(x8)
	j __no_irq_handler
  3c:	6331                	c.lui	x6,0xc
  3e:	3d6c                	c.fld	f11,248(x10)
	j __no_irq_handler
  40:	312d                	c.jal	fffffc6a <pulp__FC+0xfffffc6b>
  42:	6c20                	c.flw	f8,88(x8)
	j __no_irq_handler
  44:	6631                	c.lui	x12,0xc
  46:	312d3d63          	p.bneimm	x26,-14,360 <fast_exit+0x18>
	j __no_irq_handler
  4a:	0000                	unimp
	...

Disassembly of section .comment:

00000000 <.comment>:
	j sw_irq_handler /* ecall, illegal insn and data prohibited */
   0:	3a434347          	fmsub.d	f6,f6,f4,f7,rmm
	j __no_irq_handler
   4:	2820                	c.fld	f8,80(x8)
   6:	29554e47          	fmsub.s	f28,f10,f21,f5,rmm
	j __no_irq_handler
   a:	3720                	c.fld	f8,104(x14)
	j __no_irq_handler
   c:	312e                	c.fldsp	f2,232(x2)
   e:	312e                	c.fldsp	f2,232(x2)
	j __no_irq_handler
  10:	3220                	c.fld	f8,96(x12)
  12:	3130                	c.fld	f12,96(x10)
	j __no_irq_handler
  14:	30353037          	lui	x0,0x30353
	j __no_irq_handler
  18:	0039                	c.addi	x0,14

Disassembly of section .debug_line:

00000000 <.debug_line>:
	j sw_irq_handler /* ecall, illegal insn and data prohibited */
   0:	0490                	c.addi4spn	x12,x2,576
   2:	0000                	unimp
	j __no_irq_handler
   4:	0002                	0x2
   6:	00000027          	0x27
	j __no_irq_handler
   a:	0101                	c.addi	x2,0
	j __no_irq_handler
   c:	000d0efb          	0xd0efb
	j __no_irq_handler
  10:	0101                	c.addi	x2,0
  12:	0101                	c.addi	x2,0
	j __no_irq_handler
  14:	0000                	unimp
  16:	0100                	c.addi4spn	x8,x2,128
	j __no_irq_handler
  18:	0000                	unimp
  1a:	6601                	c.lui	x12,0x0
	j timer_irq_handler
  1c:	7269                	c.lui	x4,0xffffa
  1e:	776d                	c.lui	x14,0xffffb
	j __no_irq_handler
  20:	7261                	c.lui	x4,0xffff8
  22:	0065                	c.addi	x0,25
	j __no_irq_handler
  24:	7300                	c.flw	f8,32(x14)
  26:	6174                	c.flw	f13,68(x10)
	j __no_irq_handler
  28:	7472                	c.flwsp	f8,60(x2)
  2a:	532e                	c.lwsp	x6,232(x2)
	j __no_irq_handler
  2c:	0100                	c.addi4spn	x8,x2,128
  2e:	0000                	unimp
	j __no_irq_handler
  30:	0000                	unimp
  32:	0205                	c.addi	x4,1
	j __no_irq_handler
  34:	0000                	unimp
  36:	0000                	unimp
	j __no_irq_handler
  38:	03011203          	lh	x4,48(x2)
	j __no_irq_handler
  3c:	0901                	c.addi	x18,0
  3e:	0004                	c.addi4spn	x9,x2,0
	j __no_irq_handler
  40:	0301                	c.addi	x6,0
  42:	0901                	c.addi	x18,0
	j __no_irq_handler
  44:	0004                	c.addi4spn	x9,x2,0
  46:	0301                	c.addi	x6,0
	j __no_irq_handler
  48:	0901                	c.addi	x18,0
  4a:	0004                	c.addi4spn	x9,x2,0
	j __no_irq_handler
  4c:	0301                	c.addi	x6,0
  4e:	0901                	c.addi	x18,0
	j __no_irq_handler
  50:	0004                	c.addi4spn	x9,x2,0
  52:	0301                	c.addi	x6,0
	j __no_irq_handler
  54:	0901                	c.addi	x18,0
  56:	0004                	c.addi4spn	x9,x2,0
	j __no_irq_handler
  58:	0301                	c.addi	x6,0
  5a:	0901                	c.addi	x18,0
	j __no_irq_handler
  5c:	0004                	c.addi4spn	x9,x2,0
  5e:	0301                	c.addi	x6,0
	j __no_irq_handler
  60:	0902                	c.slli	x18,0x0
  62:	0004                	c.addi4spn	x9,x2,0
	j __no_irq_handler
  64:	0301                	c.addi	x6,0
  66:	0901                	c.addi	x18,0
	j __no_irq_handler
  68:	0004                	c.addi4spn	x9,x2,0
  6a:	0301                	c.addi	x6,0
	j __no_irq_handler
  6c:	0901                	c.addi	x18,0
  6e:	0004                	c.addi4spn	x9,x2,0
	j __no_irq_handler
  70:	0301                	c.addi	x6,0
  72:	0901                	c.addi	x18,0
	j __no_irq_handler
  74:	0004                	c.addi4spn	x9,x2,0
  76:	0301                	c.addi	x6,0
	j __no_irq_handler
  78:	0901                	c.addi	x18,0
  7a:	0004                	c.addi4spn	x9,x2,0
	j __no_irq_handler
  7c:	0301                	c.addi	x6,0
  7e:	0901                	c.addi	x18,0
	j __no_irq_handler
  80:	0004                	c.addi4spn	x9,x2,0
  82:	0301                	c.addi	x6,0
	j __no_irq_handler
  84:	0901                	c.addi	x18,0
  86:	0004                	c.addi4spn	x9,x2,0
	j __no_irq_handler
  88:	0301                	c.addi	x6,0
  8a:	0901                	c.addi	x18,0
	j __no_irq_handler
  8c:	0004                	c.addi4spn	x9,x2,0
  8e:	0301                	c.addi	x6,0
	j __no_irq_handler
  90:	0901                	c.addi	x18,0
  92:	0004                	c.addi4spn	x9,x2,0
	j __no_irq_handler
  94:	0301                	c.addi	x6,0
  96:	0901                	c.addi	x18,0
	j __no_irq_handler
  98:	0004                	c.addi4spn	x9,x2,0
  9a:	0301                	c.addi	x6,0
	j __no_irq_handler
  9c:	0901                	c.addi	x18,0
  9e:	0004                	c.addi4spn	x9,x2,0
	j __no_irq_handler
  a0:	0301                	c.addi	x6,0
  a2:	0901                	c.addi	x18,0
	j __no_irq_handler
  a4:	0004                	c.addi4spn	x9,x2,0
  a6:	0301                	c.addi	x6,0
	j __no_irq_handler
  a8:	0901                	c.addi	x18,0
  aa:	0004                	c.addi4spn	x9,x2,0
	j __no_irq_handler
  ac:	0301                	c.addi	x6,0
  ae:	0901                	c.addi	x18,0
	j __no_irq_handler
  b0:	0004                	c.addi4spn	x9,x2,0
  b2:	0301                	c.addi	x6,0
	j __no_irq_handler
  b4:	0901                	c.addi	x18,0
  b6:	0004                	c.addi4spn	x9,x2,0
	j __no_irq_handler
  b8:	0301                	c.addi	x6,0
  ba:	0901                	c.addi	x18,0
	j __no_irq_handler
  bc:	0004                	c.addi4spn	x9,x2,0
  be:	0301                	c.addi	x6,0
	j __no_irq_handler
  c0:	0901                	c.addi	x18,0
  c2:	0004                	c.addi4spn	x9,x2,0
	j __no_irq_handler
  c4:	0301                	c.addi	x6,0
  c6:	0901                	c.addi	x18,0
	j __no_irq_handler
  c8:	0004                	c.addi4spn	x9,x2,0
  ca:	0301                	c.addi	x6,0
	j __no_irq_handler
  cc:	0901                	c.addi	x18,0
  ce:	0004                	c.addi4spn	x9,x2,0
	j __no_irq_handler
  d0:	0301                	c.addi	x6,0
  d2:	0901                	c.addi	x18,0
	j __no_irq_handler
  d4:	0004                	c.addi4spn	x9,x2,0
  d6:	0301                	c.addi	x6,0
	j __no_irq_handler
  d8:	0901                	c.addi	x18,0
  da:	0004                	c.addi4spn	x9,x2,0
	j __no_irq_handler
  dc:	0301                	c.addi	x6,0
  de:	0901                	c.addi	x18,0
	j __no_irq_handler
  e0:	0004                	c.addi4spn	x9,x2,0
  e2:	0301                	c.addi	x6,0
	j __no_irq_handler
  e4:	0901                	c.addi	x18,0
  e6:	0004                	c.addi4spn	x9,x2,0
	j __no_irq_handler
  e8:	0301                	c.addi	x6,0
  ea:	0901                	c.addi	x18,0
	j __no_irq_handler
  ec:	0004                	c.addi4spn	x9,x2,0
  ee:	0301                	c.addi	x6,0
	j __no_irq_handler
  f0:	0901                	c.addi	x18,0
  f2:	0004                	c.addi4spn	x9,x2,0
	j __no_irq_handler
  f4:	0301                	c.addi	x6,0
  f6:	0901                	c.addi	x18,0
	j __no_irq_handler
  f8:	0004                	c.addi4spn	x9,x2,0
  fa:	0301                	c.addi	x6,0
	j __no_irq_handler
  fc:	0901                	c.addi	x18,0
  fe:	0004                	c.addi4spn	x9,x2,0
 100:	0301                	c.addi	x6,0
 102:	0901                	c.addi	x18,0
 104:	0004                	c.addi4spn	x9,x2,0
 106:	0301                	c.addi	x6,0
 108:	0901                	c.addi	x18,0
 10a:	0004                	c.addi4spn	x9,x2,0
 10c:	0301                	c.addi	x6,0
 10e:	0901                	c.addi	x18,0
 110:	0004                	c.addi4spn	x9,x2,0
 112:	0301                	c.addi	x6,0
 114:	0901                	c.addi	x18,0
 116:	0004                	c.addi4spn	x9,x2,0
 118:	0301                	c.addi	x6,0
 11a:	0901                	c.addi	x18,0
 11c:	0004                	c.addi4spn	x9,x2,0
 11e:	0301                	c.addi	x6,0
 120:	0901                	c.addi	x18,0
 122:	0004                	c.addi4spn	x9,x2,0
 124:	0301                	c.addi	x6,0
 126:	0901                	c.addi	x18,0
 128:	0004                	c.addi4spn	x9,x2,0
 12a:	0301                	c.addi	x6,0
 12c:	0901                	c.addi	x18,0
 12e:	0004                	c.addi4spn	x9,x2,0
 130:	0301                	c.addi	x6,0
 132:	0901                	c.addi	x18,0
 134:	0004                	c.addi4spn	x9,x2,0
 136:	0301                	c.addi	x6,0
 138:	0901                	c.addi	x18,0
 13a:	0004                	c.addi4spn	x9,x2,0
 13c:	0301                	c.addi	x6,0
 13e:	0901                	c.addi	x18,0
 140:	0004                	c.addi4spn	x9,x2,0
 142:	0301                	c.addi	x6,0
 144:	0901                	c.addi	x18,0
 146:	0004                	c.addi4spn	x9,x2,0
 148:	0301                	c.addi	x6,0
 14a:	0901                	c.addi	x18,0
 14c:	0004                	c.addi4spn	x9,x2,0
 14e:	0301                	c.addi	x6,0
 150:	0901                	c.addi	x18,0
 152:	0004                	c.addi4spn	x9,x2,0
 154:	0301                	c.addi	x6,0
 156:	0901                	c.addi	x18,0
 158:	0004                	c.addi4spn	x9,x2,0
 15a:	0301                	c.addi	x6,0
 15c:	0901                	c.addi	x18,0
 15e:	0004                	c.addi4spn	x9,x2,0
 160:	0301                	c.addi	x6,0
 162:	0901                	c.addi	x18,0
 164:	0004                	c.addi4spn	x9,x2,0
 166:	0301                	c.addi	x6,0
 168:	0901                	c.addi	x18,0
 16a:	0004                	c.addi4spn	x9,x2,0
 16c:	0301                	c.addi	x6,0
 16e:	0901                	c.addi	x18,0
 170:	0004                	c.addi4spn	x9,x2,0
 172:	0301                	c.addi	x6,0
 174:	0901                	c.addi	x18,0
 176:	0004                	c.addi4spn	x9,x2,0
 178:	0301                	c.addi	x6,0
 17a:	0901                	c.addi	x18,0
 17c:	0004                	c.addi4spn	x9,x2,0
 17e:	0301                	c.addi	x6,0
	j start
 180:	0901                	c.addi	x18,0
 182:	0004                	c.addi4spn	x9,x2,0
	la a0, no_exception_handler_msg
 184:	0301                	c.addi	x6,0
 186:	0901                	c.addi	x18,0
 188:	0004                	c.addi4spn	x9,x2,0
 18a:	0301                	c.addi	x6,0
	jal ra, print_str
 18c:	0901                	c.addi	x18,0
 18e:	0004                	c.addi4spn	x9,x2,0
	j __no_irq_handler
 190:	0301                	c.addi	x6,0
 192:	0901                	c.addi	x18,0
	csrr t0, mcause
 194:	0004                	c.addi4spn	x9,x2,0
 196:	0301                	c.addi	x6,0
	slli t0, t0, 1  /* shift off the high bit */
 198:	0901                	c.addi	x18,0
 19a:	0004                	c.addi4spn	x9,x2,0
	srli t0, t0, 1
 19c:	0301                	c.addi	x6,0
 19e:	0901                	c.addi	x18,0
	li t1, 2
 1a0:	0004                	c.addi4spn	x9,x2,0
 1a2:	0301                	c.addi	x6,0
	beq t0, t1, handle_illegal_insn
 1a4:	0901                	c.addi	x18,0
 1a6:	0004                	c.addi4spn	x9,x2,0
	li t1, 11
 1a8:	0301                	c.addi	x6,0
 1aa:	0901                	c.addi	x18,0
	beq t0, t1, handle_ecall
 1ac:	0004                	c.addi4spn	x9,x2,0
 1ae:	0301                	c.addi	x6,0
	li t1, 3
 1b0:	0901                	c.addi	x18,0
 1b2:	0004                	c.addi4spn	x9,x2,0
	beq t0, t1, handle_ebreak
 1b4:	0901                	c.addi	x18,0
 1b6:	0004                	c.addi4spn	x9,x2,0
	j handle_unknown
 1b8:	0100                	c.addi4spn	x8,x2,128
 1ba:	0001                	c.nop
	j fail_test
 1bc:	0205                	c.addi	x4,1
 1be:	0c38                	c.addi4spn	x14,x2,536
	la a0, ebreak_msg
 1c0:	0000                	unimp
 1c2:	0100d703          	lhu	x14,16(x1)
 1c6:	04090103          	lb	x2,64(x18)
	jal ra, print_str
 1ca:	0100                	c.addi4spn	x8,x2,128
	j fail_test
 1cc:	04090103          	lb	x2,64(x18)
	la a0, illegal_insn_msg
 1d0:	0100                	c.addi4spn	x8,x2,128
 1d2:	04090103          	lb	x2,64(x18)
 1d6:	0100                	c.addi4spn	x8,x2,128
	jal ra, print_str
 1d8:	0409                	c.addi	x8,2
 1da:	0000                	unimp
	j fail_test
 1dc:	0101                	c.addi	x2,0
 1de:	0500                	c.addi4spn	x8,x2,640
	la a0, unknown_msg
 1e0:	8002                	0x8002
 1e2:	0001                	c.nop
 1e4:	0300                	c.addi4spn	x8,x2,384
 1e6:	00de                	c.slli	x1,0x17
	jal ra, print_str
 1e8:	0901                	c.addi	x18,0
 1ea:	0004                	c.addi4spn	x9,x2,0
	mv a0, t0
 1ec:	0100                	c.addi4spn	x8,x2,128
 1ee:	0001                	c.nop
	jal ra, print_chr
 1f0:	0205                	c.addi	x4,1
 1f2:	0184                	c.addi4spn	x9,x2,192
	j fail_test
 1f4:	0000                	unimp
 1f6:	0100ea03          	p.elw	x20,16(x1)
	li a0, 1
 1fa:	08090103          	lb	x2,128(x18)
	sw a0, test_results, t1 /* signal failure */
 1fe:	0100                	c.addi4spn	x8,x2,128
 200:	04090103          	lb	x2,64(x18)
	csrr a0, mepc
 204:	0100                	c.addi4spn	x8,x2,128
 206:	04090403          	lb	x8,64(x18)
	addi a0, a0, 4
 20a:	0100                	c.addi4spn	x8,x2,128
	csrw mepc, a0
 20c:	04090103          	lb	x2,64(x18)
	mret
 210:	0100                	c.addi4spn	x8,x2,128
 212:	04090103          	lb	x2,64(x18)
	wfi
 216:	0100                	c.addi4spn	x8,x2,128
	la a0, timeout_msg
 218:	04090103          	lb	x2,64(x18)
 21c:	0100                	c.addi4spn	x8,x2,128
 21e:	04090103          	lb	x2,64(x18)
	jal ra, print_str
 222:	0100                	c.addi4spn	x8,x2,128
	li a0, 1
 224:	04090103          	lb	x2,64(x18)
	sw a0, test_results, t1 /* signal failure */
 228:	0100                	c.addi4spn	x8,x2,128
 22a:	04090103          	lb	x2,64(x18)
 22e:	0100                	c.addi4spn	x8,x2,128
	j fast_exit
 230:	04090103          	lb	x2,64(x18)
1:	auipc gp, %pcrel_hi(__global_pointer$)
 234:	0100                	c.addi4spn	x8,x2,128
 236:	04090103          	lb	x2,64(x18)
	addi  gp, gp, %pcrel_lo(1b)
 23a:	0100                	c.addi4spn	x8,x2,128
	lui sp,(1024*1024)>>12 
 23c:	04090103          	lb	x2,64(x18)
    la a0, _data_lma_start  /* 源地址：Firmware 中的数据位置 */
 240:	0100                	c.addi4spn	x8,x2,128
 242:	04090503          	lb	x10,64(x18)
 246:	0100                	c.addi4spn	x8,x2,128
    la a1, _data_start      /* 目的地址：RAM 中的起始位置 */
 248:	04090303          	lb	x6,64(x18)
 24c:	0100                	c.addi4spn	x8,x2,128
 24e:	08090103          	lb	x2,128(x18)
    la a2, _data_end        /* 目的地址：RAM 中的结束位置 */
 252:	0100                	c.addi4spn	x8,x2,128
 254:	04090103          	lb	x2,64(x18)
    beq a0, a1, copy_data_done
 258:	0100                	c.addi4spn	x8,x2,128
 25a:	04090303          	lb	x6,64(x18)
    bge a1, a2, copy_data_done /* 如果当前地址 >= 结束地址，完成 */
 25e:	0100                	c.addi4spn	x8,x2,128
    lw t0, 0(a0)               /* 从 ROM 读取一个字 */
 260:	08090103          	lb	x2,128(x18)
    sw t0, 0(a1)               /* 写入 RAM 一个字 */
 264:	0100                	c.addi4spn	x8,x2,128
 266:	04090103          	lb	x2,64(x18)
    addi a0, a0, 4             /* 源指针 +4 */
 26a:	0100                	c.addi4spn	x8,x2,128
    addi a1, a1, 4             /* 目的指针 +4 */
 26c:	04090303          	lb	x6,64(x18)
    j copy_data_loop
 270:	0100                	c.addi4spn	x8,x2,128
 272:	08090103          	lb	x2,128(x18)
	jal ra, init_stats
 276:	0100                	c.addi4spn	x8,x2,128
	li t0, 0
 278:	04090103          	lb	x2,64(x18)
	la t1, __bss_start
 27c:	0100                	c.addi4spn	x8,x2,128
 27e:	04090103          	lb	x2,64(x18)
 282:	0100                	c.addi4spn	x8,x2,128
	la t2, __bss_end
 284:	04090103          	lb	x2,64(x18)
 288:	0100                	c.addi4spn	x8,x2,128
 28a:	04090303          	lb	x6,64(x18)
	bge t1, t2, loop_bss_done
 28e:	0100                	c.addi4spn	x8,x2,128
	sw t0, 0(t1)
 290:	04090103          	lb	x2,64(x18)
	addi t1, t1, 4
 294:	0100                	c.addi4spn	x8,x2,128
 296:	08090103          	lb	x2,128(x18)
	j loop_bss
 29a:	0100                	c.addi4spn	x8,x2,128
	addi x1, zero, 0
 29c:	04090103          	lb	x2,64(x18)
	addi x4, zero, 0
 2a0:	0100                	c.addi4spn	x8,x2,128
 2a2:	04090103          	lb	x2,64(x18)
	addi x5, zero, 0
 2a6:	0100                	c.addi4spn	x8,x2,128
	addi x6, zero, 0
 2a8:	04090103          	lb	x2,64(x18)
	addi x7, zero, 0
 2ac:	0100                	c.addi4spn	x8,x2,128
 2ae:	04090103          	lb	x2,64(x18)
	addi x8, zero, 0
 2b2:	0100                	c.addi4spn	x8,x2,128
	addi x9, zero, 0
 2b4:	04090403          	lb	x8,64(x18)
	addi x10, zero, 0
 2b8:	0100                	c.addi4spn	x8,x2,128
 2ba:	08090103          	lb	x2,128(x18)
	addi x11, zero, 0
 2be:	0100                	c.addi4spn	x8,x2,128
	addi x12, zero, 0
 2c0:	04090103          	lb	x2,64(x18)
	addi x13, zero, 0
 2c4:	0100                	c.addi4spn	x8,x2,128
 2c6:	04090103          	lb	x2,64(x18)
	addi x14, zero, 0
 2ca:	0100                	c.addi4spn	x8,x2,128
	addi x15, zero, 0
 2cc:	08090103          	lb	x2,128(x18)
	addi x16, zero, 0
 2d0:	0100                	c.addi4spn	x8,x2,128
 2d2:	04090a03          	lb	x20,64(x18)
	addi x17, zero, 0
 2d6:	0100                	c.addi4spn	x8,x2,128
	addi x18, zero, 0
 2d8:	04090103          	lb	x2,64(x18)
	addi x19, zero, 0
 2dc:	0100                	c.addi4spn	x8,x2,128
 2de:	04090503          	lb	x10,64(x18)
	addi x20, zero, 0
 2e2:	0100                	c.addi4spn	x8,x2,128
	addi x21, zero, 0
 2e4:	04090403          	lb	x8,64(x18)
	addi x22, zero, 0
 2e8:	0100                	c.addi4spn	x8,x2,128
 2ea:	08090103          	lb	x2,128(x18)
	addi x23, zero, 0
 2ee:	0100                	c.addi4spn	x8,x2,128
	addi x24, zero, 0
 2f0:	08090103          	lb	x2,128(x18)
	addi x25, zero, 0
 2f4:	0100                	c.addi4spn	x8,x2,128
 2f6:	08090303          	lb	x6,128(x18)
	addi x26, zero, 0
 2fa:	0100                	c.addi4spn	x8,x2,128
	addi x27, zero, 0
 2fc:	04090303          	lb	x6,64(x18)
	addi x28, zero, 0
 300:	0100                	c.addi4spn	x8,x2,128
 302:	04090103          	lb	x2,64(x18)
	addi x29, zero, 0
 306:	0100                	c.addi4spn	x8,x2,128
	addi x30, zero, 0
 308:	04090103          	lb	x2,64(x18)
	addi x31, zero, 0
 30c:	0100                	c.addi4spn	x8,x2,128
 30e:	04090103          	lb	x2,64(x18)
	li      t0, 8
 312:	0100                	c.addi4spn	x8,x2,128
	csrrs   zero, mstatus, t0
 314:	04090103          	lb	x2,64(x18)
	li a0, timer_irq_mask
 318:	0100                	c.addi4spn	x8,x2,128
 31a:	04090103          	lb	x2,64(x18)
	li a1, 0x8
 31e:	0100                	c.addi4spn	x8,x2,128
	sw a1,0(a0)
 320:	04090503          	lb	x10,64(x18)
	TEST(app)
 324:	0100                	c.addi4spn	x8,x2,128
 326:	04090303          	lb	x6,64(x18)
 32a:	0100                	c.addi4spn	x8,x2,128
 32c:	04090103          	lb	x2,64(x18)
 330:	0100                	c.addi4spn	x8,x2,128
 332:	08090103          	lb	x2,128(x18)
 336:	0100                	c.addi4spn	x8,x2,128
 338:	08090303          	lb	x6,128(x18)
	lui gp, %hi(0xdeadbeef)
 33c:	0100                	c.addi4spn	x8,x2,128
 33e:	04090103          	lb	x2,64(x18)
	addi gp, gp, %lo(0xdeadbeef)
 342:	0100                	c.addi4spn	x8,x2,128
	addi tp, gp, 0
 344:	04090103          	lb	x2,64(x18)
	lui a0,print_port>>12
 348:	0100                	c.addi4spn	x8,x2,128
 34a:	04090103          	lb	x2,64(x18)
	addi a1,zero,'D'
 34e:	0100                	c.addi4spn	x8,x2,128
	addi a2,zero,'O'
 350:	04090403          	lb	x8,64(x18)
	addi a3,zero,'N'
 354:	0100                	c.addi4spn	x8,x2,128
 356:	04090303          	lb	x6,64(x18)
	addi a4,zero,'E'
 35a:	0100                	c.addi4spn	x8,x2,128
	addi a5,zero,'\n'
 35c:	04090103          	lb	x2,64(x18)
	sw a1,0(a0)
 360:	0100                	c.addi4spn	x8,x2,128
 362:	04090103          	lb	x2,64(x18)
	sw a2,0(a0)
 366:	0100                	c.addi4spn	x8,x2,128
	sw a3,0(a0)
 368:	04090103          	lb	x2,64(x18)
	sw a4,0(a0)
 36c:	0100                	c.addi4spn	x8,x2,128
 36e:	04090103          	lb	x2,64(x18)
	sw a5,0(a0)
 372:	0100                	c.addi4spn	x8,x2,128
	li a0, test_ret_val
 374:	04090103          	lb	x2,64(x18)
	lw a1, test_results
 378:	0100                	c.addi4spn	x8,x2,128
 37a:	04090103          	lb	x2,64(x18)
 37e:	0100                	c.addi4spn	x8,x2,128
	sw a1,0(a0)
 380:	04090103          	lb	x2,64(x18)
	wfi  /* we are done */
 384:	0100                	c.addi4spn	x8,x2,128
 386:	04090103          	lb	x2,64(x18)
{
 38a:	0100                	c.addi4spn	x8,x2,128
 38c:	04090103          	lb	x2,64(x18)
 390:	0100                	c.addi4spn	x8,x2,128
 392:	04090103          	lb	x2,64(x18)
 396:	0100                	c.addi4spn	x8,x2,128
 398:	04090103          	lb	x2,64(x18)
    *((volatile uint32_t *)OUTPORT) = ch;
 39c:	0100                	c.addi4spn	x8,x2,128
 39e:	04090103          	lb	x2,64(x18)
 3a2:	0100                	c.addi4spn	x8,x2,128
 3a4:	04090103          	lb	x2,64(x18)
}
 3a8:	0100                	c.addi4spn	x8,x2,128
 3aa:	04090103          	lb	x2,64(x18)
 3ae:	0100                	c.addi4spn	x8,x2,128
 3b0:	04090103          	lb	x2,64(x18)
 3b4:	0100                	c.addi4spn	x8,x2,128
 3b6:	04090103          	lb	x2,64(x18)
{
 3ba:	0100                	c.addi4spn	x8,x2,128
 3bc:	04090103          	lb	x2,64(x18)
 3c0:	0100                	c.addi4spn	x8,x2,128
 3c2:	04090103          	lb	x2,64(x18)
 3c6:	0100                	c.addi4spn	x8,x2,128
    while (*p != 0)
 3c8:	04090103          	lb	x2,64(x18)
        *((volatile uint32_t *)OUTPORT) = *(p++);
 3cc:	0100                	c.addi4spn	x8,x2,128
 3ce:	04090103          	lb	x2,64(x18)
 3d2:	0100                	c.addi4spn	x8,x2,128
 3d4:	04090103          	lb	x2,64(x18)
 3d8:	0100                	c.addi4spn	x8,x2,128
 3da:	04090103          	lb	x2,64(x18)
 3de:	0100                	c.addi4spn	x8,x2,128
 3e0:	04090103          	lb	x2,64(x18)
    while (*p != 0)
 3e4:	0100                	c.addi4spn	x8,x2,128
 3e6:	04090103          	lb	x2,64(x18)
 3ea:	0100                	c.addi4spn	x8,x2,128
 3ec:	04090103          	lb	x2,64(x18)
}
 3f0:	0100                	c.addi4spn	x8,x2,128
 3f2:	04090103          	lb	x2,64(x18)
 3f6:	0100                	c.addi4spn	x8,x2,128
 3f8:	04090103          	lb	x2,64(x18)
 3fc:	0100                	c.addi4spn	x8,x2,128
 3fe:	04090303          	lb	x6,64(x18)
{
 402:	0100                	c.addi4spn	x8,x2,128
 404:	04090103          	lb	x2,64(x18)
 408:	0100                	c.addi4spn	x8,x2,128
 40a:	04090303          	lb	x6,64(x18)
 40e:	0100                	c.addi4spn	x8,x2,128
    char *p = buffer;
 410:	04090103          	lb	x2,64(x18)
 414:	0100                	c.addi4spn	x8,x2,128
 416:	04090103          	lb	x2,64(x18)
    while (val || p == buffer) {
 41a:	0100                	c.addi4spn	x8,x2,128
        *(p++) = val % 10;
 41c:	04091503          	lh	x10,64(x18)
 420:	0100                	c.addi4spn	x8,x2,128
 422:	18090503          	lb	x10,384(x18)
 426:	0100                	c.addi4spn	x8,x2,128
 428:	04090103          	lb	x2,64(x18)
 42c:	0100                	c.addi4spn	x8,x2,128
 42e:	04090103          	lb	x2,64(x18)
 432:	0100                	c.addi4spn	x8,x2,128
 434:	04091203          	lh	x4,64(x18)
 438:	0100                	c.addi4spn	x8,x2,128
 43a:	04090103          	lb	x2,64(x18)
        val = val / 10;
 43e:	0100                	c.addi4spn	x8,x2,128
 440:	04090103          	lb	x2,64(x18)
 444:	0100                	c.addi4spn	x8,x2,128
 446:	04090103          	lb	x2,64(x18)
 44a:	0100                	c.addi4spn	x8,x2,128
    while (val || p == buffer) {
 44c:	04090103          	lb	x2,64(x18)
 450:	0100                	c.addi4spn	x8,x2,128
 452:	04090103          	lb	x2,64(x18)
 456:	0100                	c.addi4spn	x8,x2,128
 458:	04090103          	lb	x2,64(x18)
 45c:	0100                	c.addi4spn	x8,x2,128
 45e:	04090103          	lb	x2,64(x18)
    while (p != buffer) {
 462:	0100                	c.addi4spn	x8,x2,128
        *((volatile uint32_t *)OUTPORT) = '0' + *(--p);
 464:	04090103          	lb	x2,64(x18)
 468:	0100                	c.addi4spn	x8,x2,128
 46a:	04090103          	lb	x2,64(x18)
 46e:	0100                	c.addi4spn	x8,x2,128
 470:	04090103          	lb	x2,64(x18)
 474:	0100                	c.addi4spn	x8,x2,128
 476:	04090303          	lb	x6,64(x18)
 47a:	0100                	c.addi4spn	x8,x2,128
 47c:	04090103          	lb	x2,64(x18)
 480:	0100                	c.addi4spn	x8,x2,128
 482:	08090103          	lb	x2,128(x18)
    while (p != buffer) {
 486:	0100                	c.addi4spn	x8,x2,128
 488:	04090203          	lb	x4,64(x18)
 48c:	0100                	c.addi4spn	x8,x2,128
 48e:	0409                	c.addi	x8,2
}
 490:	0000                	unimp
 492:	0101                	c.addi	x2,0
 494:	0164                	c.addi4spn	x9,x2,140
 496:	0000                	unimp
 498:	0002                	0x2
 49a:	00aa                	c.slli	x1,0xa
 49c:	0000                	unimp
 49e:	0101                	c.addi	x2,0
{
 4a0:	000d0efb          	0xd0efb
 4a4:	0101                	c.addi	x2,0
 4a6:	0101                	c.addi	x2,0
 4a8:	0000                	unimp
 4aa:	0100                	c.addi4spn	x8,x2,128
 4ac:	0000                	unimp
 4ae:	6601                	c.lui	x12,0x0
 4b0:	7269                	c.lui	x4,0xffffa
 4b2:	776d                	c.lui	x14,0xffffb
    for (int i = (4 * digits) - 4; i >= 0; i -= 4)
 4b4:	7261                	c.lui	x4,0xffff8
 4b6:	0065                	c.addi	x0,25
 4b8:	74706f2f          	0x74706f2f
 4bc:	7369722f          	0x7369722f
 4c0:	722f7663          	bgeu	x30,x2,bec <app+0x39c>
 4c4:	7369                	c.lui	x6,0xffffa
 4c6:	32337663          	bgeu	x6,x3,7f2 <init_data+0xba>
        *((volatile uint32_t *)OUTPORT) = "0123456789ABCDEF"[(val >> i) % 16];
 4ca:	752d                	c.lui	x10,0xfffeb
 4cc:	6b6e                	c.flwsp	f22,216(x2)
 4ce:	6f6e                	c.flwsp	f30,216(x2)
 4d0:	652d6e77          	0x652d6e77
 4d4:	666c                	c.flw	f11,76(x12)
 4d6:	7379732f          	0x7379732f
 4da:	692d                	c.lui	x18,0xb
 4dc:	636e                	c.flwsp	f6,216(x2)
 4de:	756c                	c.flw	f11,108(x10)
 4e0:	6564                	c.flw	f9,76(x10)
 4e2:	63616d2f          	0x63616d2f
 4e6:	6968                	c.flw	f10,84(x10)
 4e8:	656e                	c.flwsp	f10,216(x2)
 4ea:	2f00                	c.fld	f8,24(x14)
    for (int i = (4 * digits) - 4; i >= 0; i -= 4)
 4ec:	2f74706f          	jal	x0,47fe2 <__bss_end+0x46fda>
 4f0:	6972                	c.flwsp	f18,28(x2)
 4f2:	2f766373          	csrrsi	x6,0x2f7,12
 4f6:	6972                	c.flwsp	f18,28(x2)
 4f8:	33766373          	csrrsi	x6,0x337,12
 4fc:	2d32                	c.fldsp	f26,264(x2)
 4fe:	6e75                	c.lui	x28,0x1d
}
 500:	776f6e6b          	0x776f6e6b
 504:	2d6e                	c.fldsp	f26,216(x2)
 506:	6c65                	c.lui	x24,0x19
 508:	2f66                	c.fldsp	f30,88(x2)
 50a:	2d737973          	csrrci	x18,0x2d7,6
 50e:	6e69                	c.lui	x28,0x1a
{
 510:	64756c63          	bltu	x10,x7,b68 <app+0x318>
 514:	2f65                	c.jal	ccc <unknown_msg+0x12>
 516:	00737973          	csrrci	x18,0x7,6
 51a:	7000                	c.flw	f8,32(x8)
 51c:	6972                	c.flwsp	f18,28(x2)
 51e:	746e                	c.flwsp	f8,248(x2)
 520:	632e                	c.flwsp	f6,200(x2)
 522:	0100                	c.addi4spn	x8,x2,128
 524:	0000                	unimp
 526:	645f 6665 7561      	0x75616665645f
 52c:	746c                	c.flw	f11,108(x8)
 52e:	745f 7079 7365      	0x73657079745f
    char *p = buffer;
 534:	682e                	c.flwsp	f16,200(x2)
 536:	0200                	c.addi4spn	x8,x2,256
    while (val || digits > 0) {
 538:	0000                	unimp
 53a:	735f 6474 6e69      	0x6e696474735f
	if (val)
 540:	2e74                	c.fld	f13,216(x12)
 542:	0068                	c.addi4spn	x10,x2,12
	    *(p++) = '0' + val % 10;
 544:	00000003          	lb	x0,0(x0) # 0 <__irq_base_vector>
 548:	0500                	c.addi4spn	x8,x2,640
 54a:	8802                	c.jr	x16
 54c:	03000003          	lb	x0,48(x0) # 30 <vector_table_timer+0x14>
 550:	010c                	c.addi4spn	x11,x2,128
 552:	14090103          	lb	x2,320(x18) # b140 <__bss_end+0xa138>
 556:	0100                	c.addi4spn	x8,x2,128
 558:	0c090103          	lb	x2,192(x18)
 55c:	0100                	c.addi4spn	x8,x2,128
 55e:	10090303          	lb	x6,256(x18)
 562:	0100                	c.addi4spn	x8,x2,128
 564:	10090103          	lb	x2,256(x18)
 568:	0100                	c.addi4spn	x8,x2,128
 56a:	04090103          	lb	x2,64(x18)
 56e:	0100                	c.addi4spn	x8,x2,128
	    *(p++) = zero_pad ? '0' : ' ';
 570:	18097f03          	0x18097f03
 574:	0100                	c.addi4spn	x8,x2,128
 576:	0c090203          	lb	x4,192(x18)
 57a:	0100                	c.addi4spn	x8,x2,128
 57c:	10090303          	lb	x6,256(x18)
 580:	0100                	c.addi4spn	x8,x2,128
 582:	10090203          	lb	x4,256(x18)
 586:	0100                	c.addi4spn	x8,x2,128
 588:	08090103          	lb	x2,128(x18)
 58c:	0100                	c.addi4spn	x8,x2,128
 58e:	04090103          	lb	x2,64(x18)
 592:	0100                	c.addi4spn	x8,x2,128
	val = val / 10;
 594:	20090103          	lb	x2,512(x18)
 598:	0100                	c.addi4spn	x8,x2,128
 59a:	10097e03          	p.lh	x28,x0(x18)
 59e:	0100                	c.addi4spn	x8,x2,128
 5a0:	0200                	c.addi4spn	x8,x2,256
 5a2:	0104                	c.addi4spn	x9,x2,128
	digits--;
 5a4:	0306                	c.slli	x6,0x1
 5a6:	0900                	c.addi4spn	x8,x2,144
 5a8:	0008                	c.addi4spn	x10,x2,0
 5aa:	0601                	c.addi	x12,0
 5ac:	0c090403          	lb	x8,192(x18)
    while (val || digits > 0) {
 5b0:	0100                	c.addi4spn	x8,x2,128
 5b2:	04090103          	lb	x2,64(x18)
 5b6:	0100                	c.addi4spn	x8,x2,128
 5b8:	20097f03          	p.lw	x30,x0(x18)
 5bc:	0100                	c.addi4spn	x8,x2,128
 5be:	0c090303          	lb	x6,192(x18)
    while (p != buffer) {
 5c2:	0100                	c.addi4spn	x8,x2,128
	if (p[-1] == ' ' && p[-2] == ' ')
 5c4:	10090303          	lb	x6,256(x18)
 5c8:	0100                	c.addi4spn	x8,x2,128
 5ca:	14090103          	lb	x2,320(x18)
 5ce:	0100                	c.addi4spn	x8,x2,128
 5d0:	0200                	c.addi4spn	x8,x2,256
 5d2:	0304                	c.addi4spn	x9,x2,384
 5d4:	14090103          	lb	x2,320(x18)
 5d8:	0100                	c.addi4spn	x8,x2,128
 5da:	0200                	c.addi4spn	x8,x2,256
 5dc:	0304                	c.addi4spn	x9,x2,384
 5de:	24097f03          	0x24097f03
 5e2:	0100                	c.addi4spn	x8,x2,128
 5e4:	0200                	c.addi4spn	x8,x2,256
 5e6:	0104                	c.addi4spn	x9,x2,128
 5e8:	0306                	c.slli	x6,0x1
 5ea:	0900                	c.addi4spn	x8,x2,144
	    p[-1] = '.';
 5ec:	000c                	c.addi4spn	x11,x2,0
 5ee:	0601                	c.addi	x12,0
 5f0:	08090203          	lb	x4,128(x18)
 5f4:	0100                	c.addi4spn	x8,x2,128
 5f6:	1009                	c.addi	x0,-30
 5f8:	0000                	unimp
 5fa:	0101                	c.addi	x2,0
	print_chr(*(--p));
 5fc:	0000013b          	0x13b
 600:	0002                	0x2
 602:	00000027          	0x27
 606:	0101                	c.addi	x2,0
 608:	000d0efb          	0xd0efb
 60c:	0101                	c.addi	x2,0
 60e:	0101                	c.addi	x2,0
 610:	0000                	unimp
 612:	0100                	c.addi4spn	x8,x2,128
 614:	0000                	unimp
 616:	6601                	c.lui	x12,0x0
    while (p != buffer) {
 618:	7269                	c.lui	x4,0xffffa
 61a:	776d                	c.lui	x14,0xffffb
 61c:	7261                	c.lui	x4,0xffff8
 61e:	0065                	c.addi	x0,25
 620:	7300                	c.flw	f8,32(x14)
 622:	6174                	c.flw	f13,68(x10)
}
 624:	7374                	c.flw	f13,100(x14)
 626:	632e                	c.flwsp	f6,200(x2)
 628:	0100                	c.addi4spn	x8,x2,128
 62a:	0000                	unimp
 62c:	0000                	unimp
 62e:	0205                	c.addi	x4,1
 630:	0510                	c.addi4spn	x12,x2,640
 632:	0000                	unimp
 634:	03010a03          	lb	x20,48(x2)
{
 638:	0902                	c.slli	x18,0x0
 63a:	0020                	c.addi4spn	x8,x2,8
 63c:	0301                	c.addi	x6,0
 63e:	0901                	c.addi	x18,0
 640:	0008                	c.addi4spn	x10,x2,0
 642:	0301                	c.addi	x6,0
    unsigned int pcmr = 1; /* global enable without saturation */
 644:	0901                	c.addi	x18,0
 646:	0004                	c.addi4spn	x9,x2,0
 648:	0301                	c.addi	x6,0
 64a:	0901                	c.addi	x18,0
    unsigned int pcer = 3; /* cycles and instr count enable */
 64c:	0008                	c.addi4spn	x10,x2,0
 64e:	0301                	c.addi	x6,0
 650:	0902                	c.slli	x18,0x0
 652:	002c                	c.addi4spn	x11,x2,8
    __asm__ volatile("csrw 0x7e0, %0" ::"r"(pcer));
 654:	0001                	c.nop
 656:	0402                	c.slli	x8,0x0
 658:	0601                	c.addi	x12,0
 65a:	08090003          	lb	x0,128(x18)
    __asm__ volatile("csrw 0x7e1, %0" ::"r"(pcmr));
 65e:	0100                	c.addi4spn	x8,x2,128
 660:	0200                	c.addi4spn	x8,x2,256
 662:	0204                	c.addi4spn	x9,x2,256
}
 664:	08090003          	lb	x0,128(x18)
 668:	0100                	c.addi4spn	x8,x2,128
 66a:	0200                	c.addi4spn	x8,x2,256
 66c:	0404                	c.addi4spn	x9,x2,512
 66e:	04090003          	lb	x0,64(x18)
 672:	0100                	c.addi4spn	x8,x2,128
{
 674:	0306                	c.slli	x6,0x1
 676:	0901                	c.addi	x18,0
 678:	0010                	c.addi4spn	x12,x2,0
 67a:	0301                	c.addi	x6,0
 67c:	0901                	c.addi	x18,0
 67e:	0010                	c.addi4spn	x12,x2,0
 680:	0301                	c.addi	x6,0
 682:	097a                	c.slli	x18,0x1e
    __asm__ volatile("csrr %0, 0x780" : "=r"(num_cycles));
 684:	000c                	c.addi4spn	x11,x2,0
 686:	0001                	c.nop
 688:	0402                	c.slli	x8,0x0
 68a:	0601                	c.addi	x12,0
    __asm__ volatile("csrr %0, 0x781" : "=r"(num_instr));
 68c:	08090003          	lb	x0,128(x18)
 690:	0100                	c.addi4spn	x8,x2,128
 692:	0306                	c.slli	x6,0x1
    print_str("Cycle counter ........");
 694:	0908                	c.addi4spn	x10,x2,144
 696:	0008                	c.addi4spn	x10,x2,0
 698:	0301                	c.addi	x6,0
 69a:	0901                	c.addi	x18,0
    stats_print_dec(num_cycles, 8, false);
 69c:	0004                	c.addi4spn	x9,x2,0
 69e:	0001                	c.nop
 6a0:	0402                	c.slli	x8,0x0
 6a2:	0601                	c.addi	x12,0
 6a4:	14090003          	lb	x0,320(x18)
 6a8:	0100                	c.addi4spn	x8,x2,128
 6aa:	0306                	c.slli	x6,0x1
    print_str("\nInstruction counter ..");
 6ac:	0901                	c.addi	x18,0
 6ae:	0014                	c.addi4spn	x13,x2,0
 6b0:	0301                	c.addi	x6,0
 6b2:	0901                	c.addi	x18,0
    stats_print_dec(num_instr, 8, false);
 6b4:	0010                	c.addi4spn	x12,x2,0
 6b6:	0301                	c.addi	x6,0
 6b8:	097d                	c.addi	x18,31
 6ba:	001c                	c.addi4spn	x15,x2,0
 6bc:	0301                	c.addi	x6,0
 6be:	0905                	c.addi	x18,1
 6c0:	000c                	c.addi4spn	x11,x2,0
 6c2:	0301                	c.addi	x6,0
    print_str("\nCPI: ");
 6c4:	00140903          	lb	x18,1(x8) # 19001 <__bss_end+0x17ff9>
 6c8:	0301                	c.addi	x6,0
 6ca:	0901                	c.addi	x18,0
    stats_print_dec((num_cycles / num_instr), 0, false);
 6cc:	000c                	c.addi4spn	x11,x2,0
 6ce:	0301                	c.addi	x6,0
 6d0:	0901                	c.addi	x18,0
 6d2:	0008                	c.addi4spn	x10,x2,0
 6d4:	0301                	c.addi	x6,0
 6d6:	0901                	c.addi	x18,0
 6d8:	0008                	c.addi4spn	x10,x2,0
 6da:	0301                	c.addi	x6,0
 6dc:	0901                	c.addi	x18,0
 6de:	0008                	c.addi4spn	x10,x2,0
 6e0:	0301                	c.addi	x6,0
 6e2:	0901                	c.addi	x18,0
 6e4:	0008                	c.addi4spn	x10,x2,0
 6e6:	0301                	c.addi	x6,0
    print_str(".");
 6e8:	00100903          	lb	x18,1(x0) # 1 <__irq_base_vector+0x1>
 6ec:	0301                	c.addi	x6,0
 6ee:	0906                	c.slli	x18,0x1
    stats_print_dec(((100 * num_cycles) / num_instr) % 100, 2, true);
 6f0:	0010                	c.addi4spn	x12,x2,0
 6f2:	0301                	c.addi	x6,0
 6f4:	0901                	c.addi	x18,0
 6f6:	0008                	c.addi4spn	x10,x2,0
 6f8:	0301                	c.addi	x6,0
 6fa:	0901                	c.addi	x18,0
 6fc:	0008                	c.addi4spn	x10,x2,0
 6fe:	0301                	c.addi	x6,0
 700:	0901                	c.addi	x18,0
 702:	0008                	c.addi4spn	x10,x2,0
 704:	0301                	c.addi	x6,0
 706:	0901                	c.addi	x18,0
 708:	0010                	c.addi4spn	x12,x2,0
 70a:	0301                	c.addi	x6,0
 70c:	0901                	c.addi	x18,0
 70e:	0008                	c.addi4spn	x10,x2,0
 710:	0301                	c.addi	x6,0
 712:	0901                	c.addi	x18,0
 714:	0010                	c.addi4spn	x12,x2,0
 716:	0301                	c.addi	x6,0
 718:	0901                	c.addi	x18,0
 71a:	0008                	c.addi4spn	x10,x2,0
    print_str("\n");
 71c:	0301                	c.addi	x6,0
 71e:	0901                	c.addi	x18,0
 720:	001c                	c.addi4spn	x15,x2,0
 722:	0301                	c.addi	x6,0
}
 724:	0901                	c.addi	x18,0
 726:	0008                	c.addi4spn	x10,x2,0
 728:	0301                	c.addi	x6,0
 72a:	0901                	c.addi	x18,0
 72c:	002c                	c.addi4spn	x11,x2,8
 72e:	0301                	c.addi	x6,0
 730:	0901                	c.addi	x18,0
 732:	0008                	c.addi4spn	x10,x2,0
 734:	0901                	c.addi	x18,0
 736:	0014                	c.addi4spn	x13,x2,0
void init_data() {
 738:	0100                	c.addi4spn	x8,x2,128
 73a:	9201                	c.srli	x12,0x20
 73c:	02000003          	lb	x0,32(x0) # 20 <vector_table_timer+0x4>
 740:	f200                	c.fsw	f8,32(x12)
 742:	0000                	unimp
    for(int i=0; i<MAX_FFT_SIZE; i++) twiddle_table[i] = 0;
 744:	0100                	c.addi4spn	x8,x2,128
 746:	fb01                	c.bnez	x14,656 <init_stats+0x1e>
 748:	0d0e                	c.slli	x26,0x3
 74a:	0100                	c.addi4spn	x8,x2,128
 74c:	0101                	c.addi	x2,0
 74e:	0001                	c.nop
 750:	0000                	unimp
 752:	0001                	c.nop
 754:	0100                	c.addi4spn	x8,x2,128
 756:	6966                	c.flwsp	f18,88(x2)
 758:	6d72                	c.flwsp	f26,28(x2)
 75a:	65726177          	0x65726177
 75e:	2f00                	c.fld	f8,24(x14)
 760:	2f74706f          	jal	x0,48256 <__bss_end+0x4724e>
 764:	6972                	c.flwsp	f18,28(x2)
 766:	2f766373          	csrrsi	x6,0x2f7,12
 76a:	6972                	c.flwsp	f18,28(x2)
 76c:	33766373          	csrrsi	x6,0x337,12
 770:	2d32                	c.fldsp	f26,264(x2)
 772:	6e75                	c.lui	x28,0x1d
 774:	776f6e6b          	0x776f6e6b
 778:	2d6e                	c.fldsp	f26,216(x2)
 77a:	6c65                	c.lui	x24,0x19
    twiddle_table[1] = COMBINE(32767, 0);       // W_2^0
 77c:	2f66                	c.fldsp	f30,88(x2)
 77e:	2d737973          	csrrci	x18,0x2d7,6
 782:	6e69                	c.lui	x28,0x1a
 784:	64756c63          	bltu	x10,x7,ddc <timeout_msg+0xaa>
 788:	2f65                	c.jal	f40 <_data_lma_start+0x14c>
 78a:	00737973          	csrrci	x18,0x7,6
    twiddle_table[2] = COMBINE(32767, 0);       // W_4^0
 78e:	74706f2f          	0x74706f2f
 792:	7369722f          	0x7369722f
 796:	6c2f7663          	bgeu	x30,x2,e62 <_data_lma_start+0x6e>
 79a:	6269                	c.lui	x4,0x1a
    twiddle_table[3] = COMBINE(0, -32767);      // W_4^1
 79c:	6363672f          	0x6363672f
 7a0:	7369722f          	0x7369722f
 7a4:	32337663          	bgeu	x6,x3,ad0 <app+0x280>
 7a8:	752d                	c.lui	x10,0xfffeb
 7aa:	6b6e                	c.flwsp	f22,216(x2)
 7ac:	6f6e                	c.flwsp	f30,216(x2)
 7ae:	652d6e77          	0x652d6e77
    twiddle_table[4] = COMBINE(32767, 0);       // W_8^0
 7b2:	666c                	c.flw	f11,76(x12)
 7b4:	312e372f          	0x312e372f
 7b8:	312e                	c.fldsp	f2,232(x2)
 7ba:	636e692f          	0x636e692f
 7be:	756c                	c.flw	f11,108(x10)
    twiddle_table[5] = COMBINE(23170, -23170);  // W_8^1
 7c0:	6564                	c.flw	f9,76(x10)
 7c2:	2f00                	c.fld	f8,24(x14)
 7c4:	2f74706f          	jal	x0,482ba <__bss_end+0x472b2>
 7c8:	6972                	c.flwsp	f18,28(x2)
 7ca:	2f766373          	csrrsi	x6,0x2f7,12
 7ce:	6972                	c.flwsp	f18,28(x2)
 7d0:	33766373          	csrrsi	x6,0x337,12
    twiddle_table[6] = COMBINE(0, -32767);      // W_8^2
 7d4:	2d32                	c.fldsp	f26,264(x2)
 7d6:	6e75                	c.lui	x28,0x1d
 7d8:	776f6e6b          	0x776f6e6b
 7dc:	2d6e                	c.fldsp	f26,216(x2)
 7de:	6c65                	c.lui	x24,0x19
 7e0:	2f66                	c.fldsp	f30,88(x2)
 7e2:	2d737973          	csrrci	x18,0x2d7,6
 7e6:	6e69                	c.lui	x28,0x1a
    twiddle_table[7] = COMBINE(-23170, -23170); // W_8^3
 7e8:	64756c63          	bltu	x10,x7,e40 <_data_lma_start+0x4c>
 7ec:	0065                	c.addi	x0,25
 7ee:	6600                	c.flw	f8,8(x12)
 7f0:	7466                	c.flwsp	f8,120(x2)
 7f2:	6d5f 6961 2e6e      	0x2e6e69616d5f
 7f8:	00010063          	beq	x2,x0,7f8 <init_data+0xc0>
    for(int i=0; i<N; i++) {
 7fc:	6c00                	c.flw	f8,24(x8)
 7fe:	2e6b636f          	jal	x6,b6ae4 <_stack_top+0x36ae4>
 802:	0068                	c.addi4spn	x10,x2,12
        data_out[i] = COMBINE(i*100, 0); 
 804:	0002                	0x2
 806:	5f00                	c.lw	x8,56(x14)
 808:	7974                	c.flw	f13,116(x10)
 80a:	6570                	c.flw	f12,76(x10)
 80c:	00682e73          	csrrs	x28,0x6,x16
 810:	0002                	0x2
 812:	7300                	c.flw	f8,32(x14)
 814:	6474                	c.flw	f13,76(x8)
 816:	6564                	c.flw	f9,76(x10)
 818:	2e66                	c.fldsp	f28,88(x2)
 81a:	0068                	c.addi4spn	x10,x2,12
 81c:	72000003          	lb	x0,1824(x0) # 720 <stats+0xac>
 820:	6565                	c.lui	x10,0x19
 822:	746e                	c.flwsp	f8,248(x2)
 824:	682e                	c.flwsp	f16,200(x2)
 826:	0200                	c.addi4spn	x8,x2,256
    for(int i=0; i<N; i++) {
 828:	0000                	unimp
 82a:	6c647473          	csrrci	x8,0x6c6,8
 82e:	6269                	c.lui	x4,0x1a
 830:	682e                	c.flwsp	f16,200(x2)
 832:	0400                	c.addi4spn	x8,x2,512
 834:	0000                	unimp
 836:	0000                	unimp
 838:	0205                	c.addi	x4,1
 83a:	0738                	c.addi4spn	x14,x2,904
 83c:	0000                	unimp
 83e:	0100cf03          	lbu	x30,16(x1)
}
 842:	0c090203          	lb	x4,192(x18)
 846:	0100                	c.addi4spn	x8,x2,128
 848:	0200                	c.addi4spn	x8,x2,256
 84a:	0304                	c.addi4spn	x9,x2,384
 84c:	0306                	c.slli	x6,0x1
 84e:	0900                	c.addi4spn	x8,x2,144
int app() {
 850:	0008                	c.addi4spn	x10,x2,0
 852:	0001                	c.nop
 854:	0402                	c.slli	x8,0x0
 856:	0301                	c.addi	x6,0
 858:	0900                	c.addi4spn	x8,x2,144
 85a:	0024                	c.addi4spn	x9,x2,8
 85c:	0601                	c.addi	x12,0
 85e:	0c090203          	lb	x4,192(x18)
    init_data();
 862:	0100                	c.addi4spn	x8,x2,128
    print_str("Starting Hybrid FFT (II=1, 8x8 8-Bank Mode)...\n");
 864:	10090103          	lb	x2,256(x18)
 868:	0100                	c.addi4spn	x8,x2,128
 86a:	10090103          	lb	x2,256(x18)
    volatile int *ptr_in_a = BANK1_BASE;
 86e:	0100                	c.addi4spn	x8,x2,128
 870:	14090103          	lb	x2,320(x18)
    volatile int *ptr_in_b = BANK2_BASE;
 874:	0100                	c.addi4spn	x8,x2,128
 876:	10090103          	lb	x2,256(x18)
 87a:	0100                	c.addi4spn	x8,x2,128
    volatile int *ptr_w    = BANK3_BASE;
 87c:	14090103          	lb	x2,320(x18)
 880:	0100                	c.addi4spn	x8,x2,128
 882:	14090103          	lb	x2,320(x18)
    volatile int *ptr_out_a = BANK4_BASE;
 886:	0100                	c.addi4spn	x8,x2,128
 888:	14090303          	lb	x6,320(x18)
    volatile int *ptr_out_b = BANK5_BASE;
 88c:	0100                	c.addi4spn	x8,x2,128
 88e:	0200                	c.addi4spn	x8,x2,256
 890:	0304                	c.addi4spn	x9,x2,384
 892:	08090103          	lb	x2,128(x18)
    const int HW_LATENCY = 30; // 假设延迟，可根据仿真微调
 896:	0100                	c.addi4spn	x8,x2,128
 898:	0200                	c.addi4spn	x8,x2,256
 89a:	0304                	c.addi4spn	x9,x2,384
    const int HW_II = 1;       // 映射结果确认 II=1
 89c:	24097f03          	0x24097f03
 8a0:	0100                	c.addi4spn	x8,x2,128
 8a2:	0200                	c.addi4spn	x8,x2,256
    int basedist = 1;
 8a4:	0104                	c.addi4spn	x9,x2,128
 8a6:	0306                	c.slli	x6,0x1
 8a8:	0900                	c.addi4spn	x8,x2,144
 8aa:	000c                	c.addi4spn	x11,x2,0
    for (int BlockSize = 2; BlockSize <= N; BlockSize <<= 1) {
 8ac:	0601                	c.addi	x12,0
 8ae:	0c090303          	lb	x6,192(x18)
 8b2:	0100                	c.addi4spn	x8,x2,128
 8b4:	10090203          	lb	x4,256(x18)
        int batch_count = 0;
 8b8:	0100                	c.addi4spn	x8,x2,128
 8ba:	10090103          	lb	x2,256(x18)
        for (int i = 0; i < N; i += BlockSize) {
 8be:	0100                	c.addi4spn	x8,x2,128
 8c0:	04090103          	lb	x2,64(x18)
            for (int j = i, n = 0; n < basedist; j++, n++) {
 8c4:	0100                	c.addi4spn	x8,x2,128
 8c6:	08090403          	lb	x8,128(x18)
 8ca:	0100                	c.addi4spn	x8,x2,128
 8cc:	08090303          	lb	x6,128(x18)
 8d0:	0100                	c.addi4spn	x8,x2,128
 8d2:	08090303          	lb	x6,128(x18)
                int k = j + basedist;
 8d6:	0100                	c.addi4spn	x8,x2,128
 8d8:	08090303          	lb	x6,128(x18)
 8dc:	0100                	c.addi4spn	x8,x2,128
 8de:	08090303          	lb	x6,128(x18)
 8e2:	0100                	c.addi4spn	x8,x2,128
                int table_index = basedist + n;
 8e4:	08090403          	lb	x8,128(x18)
 8e8:	0100                	c.addi4spn	x8,x2,128
 8ea:	08090103          	lb	x2,128(x18)
 8ee:	0100                	c.addi4spn	x8,x2,128
 8f0:	08090203          	lb	x4,128(x18)
                ptr_in_a[batch_count] = data_out[j];
 8f4:	0100                	c.addi4spn	x8,x2,128
 8f6:	08090303          	lb	x6,128(x18)
 8fa:	0100                	c.addi4spn	x8,x2,128
 8fc:	0c090203          	lb	x4,192(x18)
 900:	0100                	c.addi4spn	x8,x2,128
 902:	04090303          	lb	x6,64(x18)
 906:	0100                	c.addi4spn	x8,x2,128
 908:	08090103          	lb	x2,128(x18)
 90c:	0100                	c.addi4spn	x8,x2,128
 90e:	0200                	c.addi4spn	x8,x2,256
 910:	0304                	c.addi4spn	x9,x2,384
 912:	10090103          	lb	x2,256(x18)
 916:	0100                	c.addi4spn	x8,x2,128
 918:	0200                	c.addi4spn	x8,x2,256
 91a:	0304                	c.addi4spn	x9,x2,384
                ptr_in_b[batch_count] = data_out[k];
 91c:	10090103          	lb	x2,256(x18)
 920:	0100                	c.addi4spn	x8,x2,128
 922:	0200                	c.addi4spn	x8,x2,256
 924:	0304                	c.addi4spn	x9,x2,384
 926:	10090303          	lb	x6,256(x18)
 92a:	0100                	c.addi4spn	x8,x2,128
 92c:	0200                	c.addi4spn	x8,x2,256
 92e:	0304                	c.addi4spn	x9,x2,384
 930:	28090303          	lb	x6,640(x18)
 934:	0100                	c.addi4spn	x8,x2,128
 936:	0200                	c.addi4spn	x8,x2,256
 938:	0304                	c.addi4spn	x9,x2,384
 93a:	28090303          	lb	x6,640(x18)
 93e:	0100                	c.addi4spn	x8,x2,128
 940:	0200                	c.addi4spn	x8,x2,256
 942:	0304                	c.addi4spn	x9,x2,384
                ptr_w[batch_count] = twiddle_table[table_index];
 944:	2c090203          	lb	x4,704(x18)
 948:	0100                	c.addi4spn	x8,x2,128
 94a:	0200                	c.addi4spn	x8,x2,256
 94c:	0304                	c.addi4spn	x9,x2,384
 94e:	0c097303          	0xc097303
 952:	0100                	c.addi4spn	x8,x2,128
 954:	0200                	c.addi4spn	x8,x2,256
 956:	0104                	c.addi4spn	x9,x2,128
 958:	0306                	c.slli	x6,0x1
 95a:	0900                	c.addi4spn	x8,x2,144
 95c:	0018                	c.addi4spn	x14,x2,0
 95e:	0001                	c.nop
 960:	0402                	c.slli	x8,0x0
 962:	0602                	c.slli	x12,0x0
 964:	0c097f03          	0xc097f03
 968:	0100                	c.addi4spn	x8,x2,128
 96a:	0200                	c.addi4spn	x8,x2,256
 96c:	0104                	c.addi4spn	x9,x2,128
 96e:	0306                	c.slli	x6,0x1
                batch_count++;
 970:	0900                	c.addi4spn	x8,x2,144
 972:	0010                	c.addi4spn	x12,x2,0
 974:	0601                	c.addi	x12,0
 976:	0c091303          	lh	x6,192(x18)
 97a:	0100                	c.addi4spn	x8,x2,128
            for (int j = i, n = 0; n < basedist; j++, n++) {
 97c:	10090103          	lb	x2,256(x18)
 980:	0100                	c.addi4spn	x8,x2,128
 982:	0c090103          	lb	x2,192(x18)
 986:	0100                	c.addi4spn	x8,x2,128
 988:	10090103          	lb	x2,256(x18)
 98c:	0100                	c.addi4spn	x8,x2,128
 98e:	10090103          	lb	x2,256(x18)
 992:	0100                	c.addi4spn	x8,x2,128
 994:	10090303          	lb	x6,256(x18)
 998:	0100                	c.addi4spn	x8,x2,128
 99a:	1c090103          	lb	x2,448(x18)
 99e:	0100                	c.addi4spn	x8,x2,128
        for (int i = 0; i < N; i += BlockSize) {
 9a0:	10090303          	lb	x6,256(x18)
 9a4:	0100                	c.addi4spn	x8,x2,128
 9a6:	10090303          	lb	x6,256(x18)
 9aa:	0100                	c.addi4spn	x8,x2,128
 9ac:	0200                	c.addi4spn	x8,x2,256
 9ae:	0104                	c.addi4spn	x9,x2,128
 9b0:	0306                	c.slli	x6,0x1
 9b2:	0900                	c.addi4spn	x8,x2,144
 9b4:	0004                	c.addi4spn	x9,x2,0
 9b6:	0601                	c.addi	x12,0
 9b8:	14090303          	lb	x6,320(x18)
        MMIO_WRITE(PORT_IN_A_ADDR,   (int)ptr_in_a);
 9bc:	0100                	c.addi4spn	x8,x2,128
 9be:	0c090103          	lb	x2,192(x18)
 9c2:	0100                	c.addi4spn	x8,x2,128
 9c4:	10090103          	lb	x2,256(x18)
 9c8:	0100                	c.addi4spn	x8,x2,128
 9ca:	10090103          	lb	x2,256(x18)
        MMIO_WRITE(PORT_IN_B_ADDR,   (int)ptr_in_b);
 9ce:	0100                	c.addi4spn	x8,x2,128
 9d0:	0c090403          	lb	x8,192(x18)
 9d4:	0100                	c.addi4spn	x8,x2,128
 9d6:	04090103          	lb	x2,64(x18)
        MMIO_WRITE(PORT_WEIGHT_ADDR, (int)ptr_w);
 9da:	0100                	c.addi4spn	x8,x2,128
 9dc:	08090103          	lb	x2,128(x18)
 9e0:	0100                	c.addi4spn	x8,x2,128
 9e2:	0200                	c.addi4spn	x8,x2,256
 9e4:	0304                	c.addi4spn	x9,x2,384
 9e6:	10090103          	lb	x2,256(x18)
        MMIO_WRITE(PORT_OUT_A_ADDR,  (int)ptr_out_a);
 9ea:	0100                	c.addi4spn	x8,x2,128
 9ec:	0200                	c.addi4spn	x8,x2,256
 9ee:	0304                	c.addi4spn	x9,x2,384
 9f0:	10090303          	lb	x6,256(x18)
 9f4:	0100                	c.addi4spn	x8,x2,128
 9f6:	0200                	c.addi4spn	x8,x2,256
        MMIO_WRITE(PORT_OUT_B_ADDR,  (int)ptr_out_b);
 9f8:	0304                	c.addi4spn	x9,x2,384
 9fa:	28090303          	lb	x6,640(x18)
 9fe:	0100                	c.addi4spn	x8,x2,128
 a00:	0200                	c.addi4spn	x8,x2,256
 a02:	0304                	c.addi4spn	x9,x2,384
 a04:	28090203          	lb	x4,640(x18)
        int exec_cycles = HW_LATENCY + (batch_count - 1) * HW_II;
 a08:	0100                	c.addi4spn	x8,x2,128
 a0a:	0200                	c.addi4spn	x8,x2,256
 a0c:	0304                	c.addi4spn	x9,x2,384
 a0e:	0c097703          	0xc097703
 a12:	0100                	c.addi4spn	x8,x2,128
 a14:	0200                	c.addi4spn	x8,x2,256
 a16:	0104                	c.addi4spn	x9,x2,128
 a18:	0306                	c.slli	x6,0x1
 a1a:	0900                	c.addi4spn	x8,x2,144
 a1c:	0018                	c.addi4spn	x14,x2,0
 a1e:	0001                	c.nop
 a20:	0402                	c.slli	x8,0x0
 a22:	0602                	c.slli	x12,0x0
        MMIO_WRITE(CGRA_LOOP_CNT_ADDR, exec_cycles);
 a24:	0c097f03          	0xc097f03
 a28:	0100                	c.addi4spn	x8,x2,128
 a2a:	0200                	c.addi4spn	x8,x2,256
 a2c:	0104                	c.addi4spn	x9,x2,128
 a2e:	0306                	c.slli	x6,0x1
 a30:	0900                	c.addi4spn	x8,x2,144
 a32:	0010                	c.addi4spn	x12,x2,0
        MMIO_WRITE(CGRA_ENABLE_ADDR, 1);
 a34:	0001                	c.nop
 a36:	0402                	c.slli	x8,0x0
 a38:	0602                	c.slli	x12,0x0
 a3a:	0c090e03          	lb	x28,192(x18)
 a3e:	0100                	c.addi4spn	x8,x2,128
 a40:	0200                	c.addi4spn	x8,x2,256
 a42:	0204                	c.addi4spn	x9,x2,256
        while (MMIO_READ(CGRA_DONE_ADDR) != 1);
 a44:	0c094103          	lbu	x2,192(x18)
 a48:	0100                	c.addi4spn	x8,x2,128
 a4a:	0200                	c.addi4spn	x8,x2,256
 a4c:	0104                	c.addi4spn	x9,x2,128
 a4e:	0306                	c.slli	x6,0x1
 a50:	0900                	c.addi4spn	x8,x2,144
 a52:	000c                	c.addi4spn	x11,x2,0
 a54:	0601                	c.addi	x12,0
 a56:	0900c203          	lbu	x4,144(x1)
 a5a:	000c                	c.addi4spn	x11,x2,0
        MMIO_WRITE(CGRA_ENABLE_ADDR, 0);
 a5c:	0301                	c.addi	x6,0
 a5e:	0902                	c.slli	x18,0x0
 a60:	0008                	c.addi4spn	x10,x2,0
 a62:	0001                	c.nop
 a64:	0402                	c.slli	x8,0x0
 a66:	09010303          	lb	x6,144(x2)
        MMIO_WRITE(CGRA_RESET_ADDR, 1);
 a6a:	0008                	c.addi4spn	x10,x2,0
 a6c:	0001                	c.nop
 a6e:	0402                	c.slli	x8,0x0
 a70:	09010303          	lb	x6,144(x2)
 a74:	0008                	c.addi4spn	x10,x2,0
 a76:	0001                	c.nop
        volatile int dummy = 0; dummy++; 
 a78:	0402                	c.slli	x8,0x0
 a7a:	09010303          	lb	x6,144(x2)
 a7e:	000c                	c.addi4spn	x11,x2,0
 a80:	0001                	c.nop
 a82:	0402                	c.slli	x8,0x0
 a84:	09010303          	lb	x6,144(x2)
        MMIO_WRITE(CGRA_RESET_ADDR, 0);
 a88:	0008                	c.addi4spn	x10,x2,0
 a8a:	0001                	c.nop
 a8c:	0402                	c.slli	x8,0x0
 a8e:	09010303          	lb	x6,144(x2)
 a92:	0028                	c.addi4spn	x10,x2,8
        batch_count = 0;
 a94:	0001                	c.nop
 a96:	0402                	c.slli	x8,0x0
        for (int i = 0; i < N; i += BlockSize) {
 a98:	09010303          	lb	x6,144(x2)
 a9c:	0008                	c.addi4spn	x10,x2,0
 a9e:	0001                	c.nop
            for (int j = i, n = 0; n < basedist; j++, n++) {
 aa0:	0402                	c.slli	x8,0x0
 aa2:	09010303          	lb	x6,144(x2)
 aa6:	0024                	c.addi4spn	x9,x2,8
 aa8:	0001                	c.nop
 aaa:	0402                	c.slli	x8,0x0
 aac:	09790303          	lb	x6,151(x18)
                int k = j + basedist;
 ab0:	0008                	c.addi4spn	x10,x2,0
 ab2:	0001                	c.nop
 ab4:	0402                	c.slli	x8,0x0
 ab6:	0601                	c.addi	x12,0
 ab8:	0c090003          	lb	x0,192(x18)
 abc:	0100                	c.addi4spn	x8,x2,128
 abe:	0306                	c.slli	x6,0x1
                data_out[j] = ptr_out_a[batch_count];
 ac0:	090a                	c.slli	x18,0x2
 ac2:	000c                	c.addi4spn	x11,x2,0
 ac4:	0301                	c.addi	x6,0
 ac6:	0901                	c.addi	x18,0
 ac8:	0004                	c.addi4spn	x9,x2,0
 aca:	0901                	c.addi	x18,0
 acc:	0014                	c.addi4spn	x13,x2,0
 ace:	0100                	c.addi4spn	x8,x2,128
 ad0:	01 00 00 00 00          	Address 0x0000000000000ad0 is out of bounds.


Disassembly of section .debug_info:

00000000 <.debug_info>:
	j sw_irq_handler /* ecall, illegal insn and data prohibited */
   0:	007e                	0x7e
   2:	0000                	unimp
	j __no_irq_handler
   4:	0002                	0x2
   6:	0000                	unimp
	j __no_irq_handler
   8:	0000                	unimp
   a:	0104                	c.addi4spn	x9,x2,128
	...
	j __no_irq_handler
  14:	6966                	c.flwsp	f18,88(x2)
  16:	6d72                	c.flwsp	f26,28(x2)
	j __no_irq_handler
  18:	65726177          	0x65726177
	j timer_irq_handler
  1c:	6174732f          	0x6174732f
	j __no_irq_handler
  20:	7472                	c.flwsp	f8,60(x2)
  22:	532e                	c.lwsp	x6,232(x2)
	j __no_irq_handler
  24:	2f00                	c.fld	f8,24(x14)
  26:	6f68                	c.flw	f10,92(x14)
	j __no_irq_handler
  28:	656d                	c.lui	x10,0x1b
  2a:	6e75732f          	0x6e75732f
	j __no_irq_handler
  2e:	696a                	c.flwsp	f18,152(x2)
	j __no_irq_handler
  30:	7861                	c.lui	x16,0xffff8
  32:	2f69                	c.jal	7cc <init_data+0x94>
	j __no_irq_handler
  34:	61726763          	bltu	x4,x23,642 <init_stats+0xa>
	j __no_irq_handler
  38:	656d                	c.lui	x10,0x1b
  3a:	705f 6f72 656a      	0x656a6f72705f
	j __no_irq_handler
  40:	632f7463          	bgeu	x30,x18,668 <init_stats+0x30>
	j __no_irq_handler
  44:	2d617267          	0x2d617267
	j __no_irq_handler
  48:	656d                	c.lui	x10,0x1b
  4a:	722d                	c.lui	x4,0xfffeb
	j __no_irq_handler
  4c:	6c65                	c.lui	x24,0x19
  4e:	6165                	c.addi16sp	x2,112
	j __no_irq_handler
  50:	322d6573          	csrrsi	x10,0x322,26
	j __no_irq_handler
  54:	302e                	c.fldsp	f0,232(x2)
  56:	322e                	c.fldsp	f4,232(x2)
	j __no_irq_handler
  58:	6e65622f          	0x6e65622f
	j __no_irq_handler
  5c:	616d6863          	bltu	x26,x22,66c <init_stats+0x34>
	j __no_irq_handler
  60:	6b72                	c.flwsp	f22,28(x2)
  62:	73752f73          	csrrs	x30,0x737,x10
	j __no_irq_handler
  66:	7265                	c.lui	x4,0xffff9
	j __no_irq_handler
  68:	6562                	c.flwsp	f10,24(x2)
  6a:	636e                	c.flwsp	f6,216(x2)
	j __no_irq_handler
  6c:	2f68                	c.fld	f10,216(x14)
  6e:	6666                	c.flwsp	f12,88(x2)
	j __no_irq_handler
  70:	0074                	c.addi4spn	x13,x2,12
  72:	20554e47          	fmsub.s	f28,f10,f5,f4,rmm
	j __no_irq_handler
  76:	5341                	c.li	x6,-16
	j __no_irq_handler
  78:	3220                	c.fld	f8,96(x12)
  7a:	322e                	c.fldsp	f4,232(x2)
	j __no_irq_handler
  7c:	2e38                	c.fld	f14,88(x12)
  7e:	0030                	c.addi4spn	x12,x2,8
	j __no_irq_handler
  80:	8001                	c.srli	x8,0x0
  82:	016d                	c.addi	x2,27
	j __no_irq_handler
  84:	0000                	unimp
  86:	0004                	c.addi4spn	x9,x2,0
	j __no_irq_handler
  88:	0012                	0x12
  8a:	0000                	unimp
	j __no_irq_handler
  8c:	0104                	c.addi4spn	x9,x2,128
  8e:	0000                	unimp
	j __no_irq_handler
  90:	0000                	unimp
  92:	e20c                	c.fsw	f11,0(x12)
	j __no_irq_handler
  94:	0000                	unimp
  96:	3e00                	c.fld	f8,56(x12)
	j __no_irq_handler
  98:	0000                	unimp
  9a:	8800                	0x8800
	j __no_irq_handler
  9c:	88000003          	lb	x0,-1920(x0) # fffff880 <pulp__FC+0xfffff881>
	j __no_irq_handler
  a0:	0001                	c.nop
  a2:	9400                	0x9400
	j __no_irq_handler
  a4:	0004                	c.addi4spn	x9,x2,0
  a6:	0200                	c.addi4spn	x8,x2,256
	j __no_irq_handler
  a8:	0601                	c.addi	x12,0
  aa:	008d                	c.addi	x1,3
	j __no_irq_handler
  ac:	0000                	unimp
  ae:	0102                	c.slli	x2,0x0
	j __no_irq_handler
  b0:	8b08                	0x8b08
  b2:	0000                	unimp
	j __no_irq_handler
  b4:	0200                	c.addi4spn	x8,x2,256
  b6:	0502                	c.slli	x10,0x0
	j __no_irq_handler
  b8:	0108                	c.addi4spn	x10,x2,128
  ba:	0000                	unimp
	j __no_irq_handler
  bc:	0202                	c.slli	x4,0x0
  be:	00009907          	0x9907
	j __no_irq_handler
  c2:	0200                	c.addi4spn	x8,x2,256
	j __no_irq_handler
  c4:	0504                	c.addi4spn	x9,x2,640
  c6:	00f8                	c.addi4spn	x14,x2,76
	j __no_irq_handler
  c8:	0000                	unimp
  ca:	0000c003          	lbu	x0,0(x1)
	j __no_irq_handler
  ce:	0200                	c.addi4spn	x8,x2,256
	j __no_irq_handler
  d0:	0000534f          	fnmadd.s	f6,f0,f0,f0,unknown
	j __no_irq_handler
  d4:	0200                	c.addi4spn	x8,x2,256
  d6:	0704                	c.addi4spn	x9,x2,896
	j __no_irq_handler
  d8:	00d0                	c.addi4spn	x12,x2,68
  da:	0000                	unimp
	j __no_irq_handler
  dc:	0802                	c.slli	x16,0x0
  de:	f305                	c.bnez	x14,fffffffe <pulp__FC+0xffffffff>
	j __no_irq_handler
  e0:	0000                	unimp
  e2:	0200                	c.addi4spn	x8,x2,256
	j __no_irq_handler
  e4:	0708                	c.addi4spn	x10,x2,896
  e6:	000000cb          	fnmsub.s	f1,f0,f0,f0,rne
	j __no_irq_handler
  ea:	0404                	c.addi4spn	x9,x2,512
	j __no_irq_handler
  ec:	6905                	c.lui	x18,0x1
  ee:	746e                	c.flwsp	f8,248(x2)
	j __no_irq_handler
  f0:	0200                	c.addi4spn	x8,x2,256
  f2:	0704                	c.addi4spn	x9,x2,896
	j __no_irq_handler
  f4:	00d5                	c.addi	x1,21
  f6:	0000                	unimp
	j __no_irq_handler
  f8:	0000c203          	lbu	x4,0(x1)
	j __no_irq_handler
  fc:	0300                	c.addi4spn	x8,x2,384
  fe:	4830                	c.lw	x12,80(x8)
 100:	0000                	unimp
 102:	0500                	c.addi4spn	x8,x2,640
 104:	00ac                	c.addi4spn	x11,x2,72
 106:	0000                	unimp
 108:	2401                	c.jal	308 <loop_bss_done+0x6c>
 10a:	04a0                	c.addi4spn	x8,x2,584
 10c:	0000                	unimp
 10e:	0070                	c.addi4spn	x12,x2,12
 110:	0000                	unimp
 112:	9c01                	0x9c01
 114:	00c9                	c.addi	x1,18
 116:	0000                	unimp
 118:	7606                	c.flwsp	f12,96(x2)
 11a:	6c61                	c.lui	x24,0x18
 11c:	0100                	c.addi4spn	x8,x2,128
 11e:	6f24                	c.flw	f9,88(x14)
 120:	0000                	unimp
 122:	0200                	c.addi4spn	x8,x2,256
 124:	5c91                	c.li	x25,-28
 126:	00010107          	0x10107
 12a:	0100                	c.addi4spn	x8,x2,128
 12c:	6824                	c.flw	f9,80(x8)
 12e:	0000                	unimp
 130:	0200                	c.addi4spn	x8,x2,256
 132:	5891                	c.li	x17,-28
 134:	b408                	c.fsd	f10,40(x8)
 136:	0004                	c.addi4spn	x9,x2,0
 138:	4c00                	c.lw	x8,24(x8)
 13a:	0000                	unimp
 13c:	0900                	c.addi4spn	x8,x2,144
 13e:	0069                	c.addi	x0,26
 140:	2601                	c.jal	440 <print_dec+0x40>
 142:	0068                	c.addi4spn	x10,x2,12
 144:	0000                	unimp
 146:	9102                	c.jalr	x2
 148:	006c                	c.addi4spn	x11,x2,12
 14a:	0500                	c.addi4spn	x8,x2,640
 14c:	015e                	c.slli	x2,0x17
 14e:	0000                	unimp
 150:	1701                	c.addi	x14,-32
 152:	0400                	c.addi4spn	x8,x2,512
 154:	0000                	unimp
 156:	00a0                	c.addi4spn	x8,x2,72
 158:	0000                	unimp
 15a:	9c01                	0x9c01
 15c:	00000107          	0x107
 160:	7606                	c.flwsp	f12,96(x2)
 162:	6c61                	c.lui	x24,0x18
 164:	0100                	c.addi4spn	x8,x2,128
 166:	00006f17          	auipc	x30,0x6
 16a:	0200                	c.addi4spn	x8,x2,256
 16c:	5c91                	c.li	x25,-28
 16e:	120a                	c.slli	x4,0x22
 170:	0001                	c.nop
 172:	0100                	c.addi4spn	x8,x2,128
 174:	0719                	c.addi	x14,6
 176:	0001                	c.nop
 178:	0200                	c.addi4spn	x8,x2,256
 17a:	6091                	c.lui	x1,0x4
 17c:	7009                	0x7009
 17e:	0100                	c.addi4spn	x8,x2,128
	j start
 180:	231a                	c.fldsp	f6,384(x2)
 182:	0001                	c.nop
	la a0, no_exception_handler_msg
 184:	0200                	c.addi4spn	x8,x2,256
 186:	6c91                	c.lui	x25,0x4
 188:	0b00                	c.addi4spn	x8,x2,400
 18a:	00000117          	auipc	x2,0x0
	jal ra, print_str
 18e:	00000117          	auipc	x2,0x0
	j __no_irq_handler
 192:	6f0c                	c.flw	f11,24(x14)
	csrr t0, mcause
 194:	0000                	unimp
 196:	0900                	c.addi4spn	x8,x2,144
	slli t0, t0, 1  /* shift off the high bit */
 198:	0200                	c.addi4spn	x8,x2,256
 19a:	0801                	c.addi	x16,0
	srli t0, t0, 1
 19c:	0094                	c.addi4spn	x13,x2,64
 19e:	0000                	unimp
	li t1, 2
 1a0:	170d                	c.addi	x14,-29
 1a2:	0001                	c.nop
	beq t0, t1, handle_illegal_insn
 1a4:	0e00                	c.addi4spn	x8,x2,784
 1a6:	1704                	c.addi4spn	x9,x2,928
	li t1, 11
 1a8:	0001                	c.nop
 1aa:	0500                	c.addi4spn	x8,x2,640
	beq t0, t1, handle_ecall
 1ac:	00b6                	c.slli	x1,0xd
 1ae:	0000                	unimp
	li t1, 3
 1b0:	1101                	c.addi	x2,-32
 1b2:	03b8                	c.addi4spn	x14,x2,456
	beq t0, t1, handle_ebreak
 1b4:	0000                	unimp
 1b6:	0048                	c.addi4spn	x10,x2,4
	j handle_unknown
 1b8:	0000                	unimp
 1ba:	9c01                	0x9c01
	j fail_test
 1bc:	0000014b          	fnmsub.s	f2,f0,f0,f0,rne
	la a0, ebreak_msg
 1c0:	7006                	c.flwsp	f0,96(x2)
 1c2:	0100                	c.addi4spn	x8,x2,128
 1c4:	4b11                	c.li	x22,4
 1c6:	0001                	c.nop
	jal ra, print_str
 1c8:	0200                	c.addi4spn	x8,x2,256
 1ca:	6c91                	c.lui	x25,0x4
	j fail_test
 1cc:	0e00                	c.addi4spn	x8,x2,784
 1ce:	1e04                	c.addi4spn	x9,x2,816
	la a0, illegal_insn_msg
 1d0:	0001                	c.nop
 1d2:	0f00                	c.addi4spn	x8,x2,912
 1d4:	0034                	c.addi4spn	x13,x2,8
 1d6:	0000                	unimp
	jal ra, print_str
 1d8:	0c01                	c.addi	x24,0
 1da:	0388                	c.addi4spn	x10,x2,448
	j fail_test
 1dc:	0000                	unimp
 1de:	0030                	c.addi4spn	x12,x2,8
	la a0, unknown_msg
 1e0:	0000                	unimp
 1e2:	9c01                	0x9c01
 1e4:	6306                	c.flwsp	f6,64(x2)
 1e6:	0068                	c.addi4spn	x10,x2,12
	jal ra, print_str
 1e8:	0c01                	c.addi	x24,0
 1ea:	00000117          	auipc	x2,0x0
	mv a0, t0
 1ee:	9102                	c.jalr	x2
	jal ra, print_chr
 1f0:	4d00006f          	jal	x0,6c0 <stats+0x4c>
	j fail_test
 1f4:	0001                	c.nop
 1f6:	0400                	c.addi4spn	x8,x2,512
	li a0, 1
 1f8:	e200                	c.fsw	f8,0(x12)
 1fa:	0000                	unimp
	sw a0, test_results, t1 /* signal failure */
 1fc:	0400                	c.addi4spn	x8,x2,512
 1fe:	0001                	c.nop
 200:	0000                	unimp
 202:	0c00                	c.addi4spn	x8,x2,528
	csrr a0, mepc
 204:	012d                	c.addi	x2,11
 206:	0000                	unimp
	addi a0, a0, 4
 208:	003e                	0x3e
 20a:	0000                	unimp
	csrw mepc, a0
 20c:	0510                	c.addi4spn	x12,x2,640
 20e:	0000                	unimp
	mret
 210:	0228                	c.addi4spn	x10,x2,264
 212:	0000                	unimp
	wfi
 214:	05fc                	c.addi4spn	x15,x2,716
 216:	0000                	unimp
	la a0, timeout_msg
 218:	0102                	c.slli	x2,0x0
 21a:	8d06                	c.mv	x26,x1
 21c:	0000                	unimp
 21e:	0200                	c.addi4spn	x8,x2,256
	jal ra, print_str
 220:	0801                	c.addi	x16,0
 222:	0000008b          	p.lb	x1,0(x0!) # 0 <__irq_base_vector>
	li a0, 1
 226:	0202                	c.slli	x4,0x0
	sw a0, test_results, t1 /* signal failure */
 228:	0805                	c.addi	x16,1
 22a:	0001                	c.nop
 22c:	0200                	c.addi4spn	x8,x2,256
 22e:	0702                	c.slli	x14,0x0
	j fast_exit
 230:	0099                	c.addi	x1,6
 232:	0000                	unimp
1:	auipc gp, %pcrel_hi(__global_pointer$)
 234:	0402                	c.slli	x8,0x0
 236:	f805                	c.bnez	x8,166 <vector_table_timer+0x14a>
	addi  gp, gp, %pcrel_lo(1b)
 238:	0000                	unimp
 23a:	0200                	c.addi4spn	x8,x2,256
	lui sp,(1024*1024)>>12 
 23c:	0704                	c.addi4spn	x9,x2,896
 23e:	00d0                	c.addi4spn	x12,x2,68
    la a0, _data_lma_start  /* 源地址：Firmware 中的数据位置 */
 240:	0000                	unimp
 242:	0802                	c.slli	x16,0x0
 244:	f305                	c.bnez	x14,164 <vector_table_timer+0x148>
 246:	0000                	unimp
    la a1, _data_start      /* 目的地址：RAM 中的起始位置 */
 248:	0200                	c.addi4spn	x8,x2,256
 24a:	0708                	c.addi4spn	x10,x2,896
 24c:	000000cb          	fnmsub.s	f1,f0,f0,f0,rne
    la a2, _data_end        /* 目的地址：RAM 中的结束位置 */
 250:	69050403          	lb	x8,1680(x10) # 1b690 <__bss_end+0x1a688>
 254:	746e                	c.flwsp	f8,248(x2)
 256:	0200                	c.addi4spn	x8,x2,256
    beq a0, a1, copy_data_done
 258:	0704                	c.addi4spn	x9,x2,896
 25a:	00d5                	c.addi	x1,21
    bge a1, a2, copy_data_done /* 如果当前地址 >= 结束地址，完成 */
 25c:	0000                	unimp
 25e:	1e04                	c.addi4spn	x9,x2,816
    lw t0, 0(a0)               /* 从 ROM 读取一个字 */
 260:	0001                	c.nop
 262:	0100                	c.addi4spn	x8,x2,128
    sw t0, 0(a1)               /* 写入 RAM 一个字 */
 264:	7425                	c.lui	x8,0xfffe9
 266:	0006                	0x6
    addi a0, a0, 4             /* 源指针 +4 */
 268:	c400                	c.sw	x8,8(x8)
 26a:	0000                	unimp
    addi a1, a1, 4             /* 目的指针 +4 */
 26c:	0100                	c.addi4spn	x8,x2,128
 26e:	9d9c                	0x9d9c
    j copy_data_loop
 270:	0000                	unimp
 272:	0500                	c.addi4spn	x8,x2,640
	jal ra, init_stats
 274:	013e                	c.slli	x2,0xf
 276:	0000                	unimp
	li t0, 0
 278:	2701                	c.jal	978 <app+0x128>
 27a:	0064                	c.addi4spn	x9,x2,12
	la t1, __bss_start
 27c:	0000                	unimp
 27e:	9102                	c.jalr	x2
 280:	056c                	c.addi4spn	x11,x2,652
 282:	014e                	c.slli	x2,0x13
	la t2, __bss_end
 284:	0000                	unimp
 286:	2701                	c.jal	986 <app+0x136>
 288:	0064                	c.addi4spn	x9,x2,12
 28a:	0000                	unimp
	bge t1, t2, loop_bss_done
 28c:	9102                	c.jalr	x2
 28e:	0068                	c.addi4spn	x10,x2,12
	sw t0, 0(t1)
 290:	1906                	c.slli	x18,0x21
 292:	0001                	c.nop
	addi t1, t1, 4
 294:	0100                	c.addi4spn	x8,x2,128
 296:	381d                	c.jal	fffffacc <pulp__FC+0xfffffacd>
	j loop_bss
 298:	0006                	0x6
 29a:	3c00                	c.fld	f8,56(x8)
	addi x1, zero, 0
 29c:	0000                	unimp
 29e:	0100                	c.addi4spn	x8,x2,128
	addi x4, zero, 0
 2a0:	cf9c                	c.sw	x15,24(x15)
 2a2:	0000                	unimp
	addi x5, zero, 0
 2a4:	0500                	c.addi4spn	x8,x2,640
 2a6:	016e                	c.slli	x2,0x1b
	addi x6, zero, 0
 2a8:	0000                	unimp
 2aa:	1f01                	c.addi	x30,-32
	addi x7, zero, 0
 2ac:	0064                	c.addi4spn	x9,x2,12
 2ae:	0000                	unimp
	addi x8, zero, 0
 2b0:	9102                	c.jalr	x2
 2b2:	056c                	c.addi4spn	x11,x2,652
	addi x9, zero, 0
 2b4:	0149                	c.addi	x2,18
 2b6:	0000                	unimp
	addi x10, zero, 0
 2b8:	2001                	c.jal	2b8 <loop_bss_done+0x1c>
 2ba:	0064                	c.addi4spn	x9,x2,12
	addi x11, zero, 0
 2bc:	0000                	unimp
 2be:	9102                	c.jalr	x2
	addi x12, zero, 0
 2c0:	0068                	c.addi4spn	x10,x2,12
 2c2:	00015807          	0x15807
	addi x13, zero, 0
 2c6:	0100                	c.addi4spn	x8,x2,128
	addi x14, zero, 0
 2c8:	100a                	0x100a
 2ca:	0005                	c.addi	x0,1
	addi x15, zero, 0
 2cc:	2800                	c.fld	f8,16(x8)
 2ce:	0001                	c.nop
	addi x16, zero, 0
 2d0:	0100                	c.addi4spn	x8,x2,128
 2d2:	2c9c                	c.fld	f15,24(x9)
	addi x17, zero, 0
 2d4:	0001                	c.nop
 2d6:	0800                	c.addi4spn	x8,x2,16
	addi x18, zero, 0
 2d8:	6176                	c.flwsp	f2,92(x2)
 2da:	006c                	c.addi4spn	x11,x2,12
	addi x19, zero, 0
 2dc:	0a01                	c.addi	x20,0
 2de:	0064                	c.addi4spn	x9,x2,12
	addi x20, zero, 0
 2e0:	0000                	unimp
 2e2:	7fbc9103          	lh	x2,2043(x25) # 47fb <__bss_end+0x37f3>
	addi x21, zero, 0
 2e6:	0109                	c.addi	x2,2
	addi x22, zero, 0
 2e8:	0001                	c.nop
 2ea:	0100                	c.addi4spn	x8,x2,128
	addi x23, zero, 0
 2ec:	5d0a                	c.lwsp	x26,160(x2)
 2ee:	0000                	unimp
	addi x24, zero, 0
 2f0:	0300                	c.addi4spn	x8,x2,384
 2f2:	b891                	c.j	fffffb46 <pulp__FC+0xfffffb47>
	addi x25, zero, 0
 2f4:	097f                	0x97f
 2f6:	0124                	c.addi4spn	x9,x2,136
	addi x26, zero, 0
 2f8:	0000                	unimp
 2fa:	0a01                	c.addi	x20,0
	addi x27, zero, 0
 2fc:	012c                	c.addi4spn	x11,x2,136
 2fe:	0000                	unimp
	addi x28, zero, 0
 300:	7fb79103          	lh	x2,2043(x15)
	addi x29, zero, 0
 304:	1205                	c.addi	x4,-31
 306:	0001                	c.nop
	addi x30, zero, 0
 308:	0100                	c.addi4spn	x8,x2,128
 30a:	330c                	c.fld	f11,32(x14)
	addi x31, zero, 0
 30c:	0001                	c.nop
 30e:	0200                	c.addi4spn	x8,x2,256
	li      t0, 8
 310:	4c91                	c.li	x25,4
 312:	700a                	c.flwsp	f0,160(x2)
	csrrs   zero, mstatus, t0
 314:	0100                	c.addi4spn	x8,x2,128
 316:	4a0d                	c.li	x20,3
	li a0, timer_irq_mask
 318:	0001                	c.nop
 31a:	0200                	c.addi4spn	x8,x2,256
	li a1, 0x8
 31c:	6c91                	c.lui	x25,0x4
 31e:	0200                	c.addi4spn	x8,x2,256
	sw a1,0(a0)
 320:	0201                	c.addi	x4,0
 322:	0168                	c.addi4spn	x10,x2,140
	TEST(app)
 324:	0000                	unimp
 326:	0001430b          	p.lbu	x6,0(x2!) # 1ea <handle_unknown+0xa>
 32a:	4300                	c.lw	x8,0(x14)
 32c:	0001                	c.nop
 32e:	0c00                	c.addi4spn	x8,x2,528
 330:	0064                	c.addi4spn	x9,x2,12
 332:	0000                	unimp
 334:	001f 0102 9408      	0x94080102001f
 33a:	0000                	unimp
	lui gp, %hi(0xdeadbeef)
 33c:	0d00                	c.addi4spn	x8,x2,656
 33e:	4304                	c.lw	x9,0(x14)
	addi gp, gp, %lo(0xdeadbeef)
 340:	0001                	c.nop
 342:	0000                	unimp
	addi tp, gp, 0
 344:	0ad8                	c.addi4spn	x14,x2,340
 346:	0000                	unimp
	lui a0,print_port>>12
 348:	0004                	c.addi4spn	x9,x2,0
 34a:	000001af          	0x1af
	addi a1,zero,'D'
 34e:	0104                	c.addi4spn	x9,x2,128
	addi a2,zero,'O'
 350:	0000                	unimp
 352:	0000                	unimp
	addi a3,zero,'N'
 354:	400c                	c.lw	x11,0(x8)
 356:	0002                	0x2
	addi a4,zero,'E'
 358:	3e00                	c.fld	f8,56(x12)
 35a:	0000                	unimp
	addi a5,zero,'\n'
 35c:	3800                	c.fld	f8,48(x8)
 35e:	00000007          	0x7
	sw a1,0(a0)
 362:	0005                	c.addi	x0,1
	sw a2,0(a0)
 364:	3b00                	c.fld	f8,48(x14)
 366:	02000007          	0x2000007
	sw a3,0(a0)
 36a:	0601                	c.addi	x12,0
	sw a4,0(a0)
 36c:	008d                	c.addi	x1,3
 36e:	0000                	unimp
	sw a5,0(a0)
 370:	0102                	c.slli	x2,0x0
 372:	8b08                	0x8b08
	li a0, test_ret_val
 374:	0000                	unimp
 376:	0200                	c.addi4spn	x8,x2,256
	lw a1, test_results
 378:	0502                	c.slli	x10,0x0
 37a:	0108                	c.addi4spn	x10,x2,128
 37c:	0000                	unimp
 37e:	0202                	c.slli	x4,0x0
	sw a1,0(a0)
 380:	00009907          	0x9907
	wfi  /* we are done */
 384:	0200                	c.addi4spn	x8,x2,256
 386:	0504                	c.addi4spn	x9,x2,640
{
 388:	00f8                	c.addi4spn	x14,x2,76
 38a:	0000                	unimp
 38c:	0402                	c.slli	x8,0x0
 38e:	0000d007          	0xd007
 392:	0200                	c.addi4spn	x8,x2,256
 394:	0508                	c.addi4spn	x10,x2,640
 396:	000000f3          	0xf3
 39a:	0802                	c.slli	x16,0x0
    *((volatile uint32_t *)OUTPORT) = ch;
 39c:	0000cb07          	0xcb07
 3a0:	0300                	c.addi4spn	x8,x2,384
 3a2:	0504                	c.addi4spn	x9,x2,640
 3a4:	6e69                	c.lui	x28,0x1a
 3a6:	0074                	c.addi4spn	x13,x2,12
}
 3a8:	5d04                	c.lw	x9,56(x10)
 3aa:	0000                	unimp
 3ac:	0500                	c.addi4spn	x8,x2,640
 3ae:	005d                	c.addi	x0,23
 3b0:	0000                	unimp
 3b2:	0402                	c.slli	x8,0x0
 3b4:	0000d507          	0xd507
{
 3b8:	0200                	c.addi4spn	x8,x2,256
 3ba:	0410                	c.addi4spn	x12,x2,512
 3bc:	03bd                	c.addi	x7,15
 3be:	0000                	unimp
 3c0:	0706                	c.slli	x14,0x1
 3c2:	0004                	c.addi4spn	x9,x2,0
 3c4:	0200                	c.addi4spn	x8,x2,256
 3c6:	00005d07          	0x5d07
    while (*p != 0)
 3ca:	0600                	c.addi4spn	x8,x2,768
        *((volatile uint32_t *)OUTPORT) = *(p++);
 3cc:	03f6                	c.slli	x7,0x1d
 3ce:	0000                	unimp
 3d0:	00412c03          	lw	x24,4(x2)
 3d4:	0000                	unimp
 3d6:	e206                	c.fswsp	f1,4(x2)
 3d8:	0004                	c.addi4spn	x9,x2,0
 3da:	0300                	c.addi4spn	x8,x2,384
 3dc:	4172                	c.lwsp	x2,28(x2)
 3de:	0000                	unimp
 3e0:	0600                	c.addi4spn	x8,x2,768
 3e2:	0589                	c.addi	x11,2
    while (*p != 0)
 3e4:	0000                	unimp
 3e6:	005d9103          	lh	x2,5(x27)
 3ea:	0000                	unimp
 3ec:	00036f07          	0x36f07
}
 3f0:	0400                	c.addi4spn	x8,x2,512
 3f2:	0165                	c.addi	x2,25
 3f4:	006e                	0x6e
 3f6:	0000                	unimp
 3f8:	0408                	c.addi4spn	x10,x2,512
 3fa:	00d3a603          	lw	x12,13(x7)
 3fe:	0000                	unimp
{
 400:	6909                	c.lui	x18,0x2
 402:	03000003          	lb	x0,48(x0) # 30 <vector_table_timer+0x14>
 406:	a8a8                	c.fsd	f10,80(x9)
 408:	0000                	unimp
 40a:	0900                	c.addi4spn	x8,x2,144
 40c:	0300                	c.addi4spn	x8,x2,384
 40e:	0000                	unimp
    char *p = buffer;
 410:	00d3a903          	lw	x18,13(x7)
 414:	0000                	unimp
 416:	0a00                	c.addi4spn	x8,x2,272
    while (val || p == buffer) {
 418:	002c                	c.addi4spn	x11,x2,8
 41a:	0000                	unimp
        *(p++) = val % 10;
 41c:	000000e3          	beq	x0,x0,c1c <app+0x3cc>
 420:	00006e0b          	0x6e0b
 424:	0300                	c.addi4spn	x8,x2,384
 426:	0c00                	c.addi4spn	x8,x2,528
 428:	0308                	c.addi4spn	x10,x2,384
 42a:	000104a3          	sb	x0,9(x2)
 42e:	0d00                	c.addi4spn	x8,x2,656
 430:	04cc                	c.addi4spn	x11,x2,580
 432:	0000                	unimp
 434:	005da503          	lw	x10,5(x27)
 438:	0000                	unimp
 43a:	0d00                	c.addi4spn	x8,x2,656
        val = val / 10;
 43c:	04d4                	c.addi4spn	x13,x2,580
 43e:	0000                	unimp
 440:	00b4aa03          	lw	x20,11(x9)
 444:	0000                	unimp
 446:	0004                	c.addi4spn	x9,x2,0
 448:	4e06                	c.lwsp	x28,64(x2)
 44a:	0004                	c.addi4spn	x9,x2,0
    while (val || p == buffer) {
 44c:	0300                	c.addi4spn	x8,x2,384
 44e:	0000e3ab          	p.sw	x0,x7(x1!)
 452:	0600                	c.addi4spn	x8,x2,768
 454:	02cd                	c.addi	x5,19
 456:	0000                	unimp
 458:	007caf03          	lw	x30,7(x25) # 4007 <__bss_end+0x2fff>
 45c:	0000                	unimp
 45e:	040e                	c.slli	x8,0x3
    while (p != buffer) {
 460:	0122040f          	0x122040f
        *((volatile uint32_t *)OUTPORT) = '0' + *(--p);
 464:	0000                	unimp
 466:	0102                	c.slli	x2,0x0
 468:	9408                	0x9408
 46a:	0000                	unimp
 46c:	0500                	c.addi4spn	x8,x2,640
 46e:	0122                	c.slli	x2,0x8
 470:	0000                	unimp
 472:	3f06                	c.fldsp	f30,96(x2)
 474:	0005                	c.addi	x0,1
 476:	0500                	c.addi4spn	x8,x2,640
 478:	4816                	c.lwsp	x16,68(x2)
 47a:	0000                	unimp
 47c:	1000                	c.addi4spn	x8,x2,32
 47e:	02de                	c.slli	x5,0x17
 480:	0000                	unimp
 482:	0518                	c.addi4spn	x14,x2,640
    while (p != buffer) {
 484:	00018c2f          	0x18c2f
 488:	0d00                	c.addi4spn	x8,x2,656
 48a:	0000046f          	jal	x8,48a <print_dec+0x8a>
 48e:	3105                	c.jal	ae <vector_table_timer+0x92>
}
 490:	018c                	c.addi4spn	x11,x2,192
 492:	0000                	unimp
 494:	1100                	c.addi4spn	x8,x2,160
 496:	6b5f 0500 5d32      	0x5d3205006b5f
 49c:	0000                	unimp
 49e:	0400                	c.addi4spn	x8,x2,512
{
 4a0:	b70d                	c.j	3c2 <print_str+0xa>
 4a2:	0004                	c.addi4spn	x9,x2,0
 4a4:	0500                	c.addi4spn	x8,x2,640
 4a6:	5d32                	c.lwsp	x26,44(x2)
 4a8:	0000                	unimp
 4aa:	0800                	c.addi4spn	x8,x2,16
 4ac:	c70d                	c.beqz	x14,4d6 <print_hex+0x36>
 4ae:	0002                	0x2
 4b0:	0500                	c.addi4spn	x8,x2,640
 4b2:	5d32                	c.lwsp	x26,44(x2)
    for (int i = (4 * digits) - 4; i >= 0; i -= 4)
 4b4:	0000                	unimp
 4b6:	0c00                	c.addi4spn	x8,x2,528
 4b8:	740d                	c.lui	x8,0xfffe3
 4ba:	0005                	c.addi	x0,1
 4bc:	0500                	c.addi4spn	x8,x2,640
 4be:	5d32                	c.lwsp	x26,44(x2)
 4c0:	0000                	unimp
 4c2:	1000                	c.addi4spn	x8,x2,32
 4c4:	5f11                	c.li	x30,-28
 4c6:	0078                	c.addi4spn	x14,x2,12
        *((volatile uint32_t *)OUTPORT) = "0123456789ABCDEF"[(val >> i) % 16];
 4c8:	3305                	c.jal	1e8 <handle_unknown+0x8>
 4ca:	0192                	c.slli	x3,0x4
 4cc:	0000                	unimp
 4ce:	0014                	c.addi4spn	x13,x2,0
 4d0:	0139040f          	0x139040f
 4d4:	0000                	unimp
 4d6:	2e0a                	c.fldsp	f28,128(x2)
 4d8:	0001                	c.nop
 4da:	a200                	c.fsd	f8,0(x12)
 4dc:	0001                	c.nop
 4de:	0b00                	c.addi4spn	x8,x2,400
 4e0:	006e                	0x6e
 4e2:	0000                	unimp
 4e4:	0000                	unimp
 4e6:	fb10                	c.fsw	f12,48(x14)
 4e8:	0002                	0x2
 4ea:	2400                	c.fld	f8,8(x8)
    for (int i = (4 * digits) - 4; i >= 0; i -= 4)
 4ec:	3705                	c.jal	40c <print_dec+0xc>
 4ee:	0000021b          	0x21b
 4f2:	f80d                	c.bnez	x8,424 <print_dec+0x24>
 4f4:	0001                	c.nop
 4f6:	0500                	c.addi4spn	x8,x2,640
 4f8:	5d39                	c.li	x26,-18
 4fa:	0000                	unimp
 4fc:	0000                	unimp
 4fe:	020d                	c.addi	x4,3
}
 500:	0005                	c.addi	x0,1
 502:	0500                	c.addi4spn	x8,x2,640
 504:	5d3a                	c.lwsp	x26,172(x2)
 506:	0000                	unimp
 508:	0400                	c.addi4spn	x8,x2,512
 50a:	130d                	c.addi	x6,-29
 50c:	0002                	0x2
 50e:	0500                	c.addi4spn	x8,x2,640
{
 510:	00005d3b          	0x5d3b
 514:	0800                	c.addi4spn	x8,x2,16
 516:	f70d                	c.bnez	x14,440 <print_dec+0x40>
 518:	0005                	c.addi	x0,1
 51a:	0500                	c.addi4spn	x8,x2,640
 51c:	5d3c                	c.lw	x15,120(x10)
 51e:	0000                	unimp
 520:	0c00                	c.addi4spn	x8,x2,528
 522:	d00d                	c.beqz	x8,444 <print_dec+0x44>
 524:	05000003          	lb	x0,80(x0) # 50 <vector_table_timer+0x34>
 528:	5d3d                	c.li	x26,-17
 52a:	0000                	unimp
 52c:	1000                	c.addi4spn	x8,x2,32
 52e:	aa0d                	c.j	660 <init_stats+0x28>
    char *p = buffer;
 530:	05000003          	lb	x0,80(x0) # 50 <vector_table_timer+0x34>
 534:	5d3e                	c.lwsp	x26,236(x2)
 536:	0000                	unimp
    while (val || digits > 0) {
 538:	1400                	c.addi4spn	x8,x2,544
 53a:	790d                	c.lui	x18,0xfffe3
	if (val)
 53c:	0005                	c.addi	x0,1
 53e:	0500                	c.addi4spn	x8,x2,640
 540:	00005d3f 270d1800 	0x270d180000005d3f
	    *(p++) = '0' + val % 10;
 548:	0004                	c.addi4spn	x9,x2,0
 54a:	0500                	c.addi4spn	x8,x2,640
 54c:	5d40                	c.lw	x8,60(x10)
 54e:	0000                	unimp
 550:	1c00                	c.addi4spn	x8,x2,560
 552:	be0d                	c.j	84 <vector_table_timer+0x68>
 554:	0005                	c.addi	x0,1
 556:	0500                	c.addi4spn	x8,x2,640
 558:	5d41                	c.li	x26,-16
 55a:	0000                	unimp
 55c:	2000                	c.fld	f8,0(x8)
 55e:	1200                	c.addi4spn	x8,x2,288
 560:	0222                	c.slli	x4,0x8
 562:	0000                	unimp
 564:	0108                	c.addi4spn	x10,x2,128
 566:	4a05                	c.li	x20,1
 568:	0000025b          	p.mac	x4,x0,x0,x0
 56c:	ab0d                	c.j	a9e <app+0x24e>
 56e:	0002                	0x2
	    *(p++) = zero_pad ? '0' : ' ';
 570:	0500                	c.addi4spn	x8,x2,640
 572:	00025b4b          	fnmsub.s	f22,f4,f0,f0,unknown
 576:	0000                	unimp
 578:	730d                	c.lui	x6,0xfffe3
 57a:	0001                	c.nop
 57c:	0500                	c.addi4spn	x8,x2,640
 57e:	5b4c                	c.lw	x11,52(x14)
 580:	0002                	0x2
 582:	8000                	0x8000
 584:	00052813          	slt	x16,x10,0
 588:	0500                	c.addi4spn	x8,x2,640
 58a:	2e4e                	c.fldsp	f28,208(x2)
 58c:	0001                	c.nop
 58e:	0000                	unimp
 590:	1301                	c.addi	x6,-32
 592:	0000025b          	p.mac	x4,x0,x0,x0
	val = val / 10;
 596:	5105                	c.li	x2,-31
 598:	012e                	c.slli	x2,0xb
 59a:	0000                	unimp
 59c:	0104                	c.addi4spn	x9,x2,128
 59e:	0a00                	c.addi4spn	x8,x2,272
 5a0:	011a                	c.slli	x2,0x6
 5a2:	0000                	unimp
	digits--;
 5a4:	0000026b          	0x26b
 5a8:	00006e0b          	0x6e0b
 5ac:	1f00                	c.addi4spn	x8,x2,944
 5ae:	1200                	c.addi4spn	x8,x2,288
    while (val || digits > 0) {
 5b0:	03d9                	c.addi	x7,22
 5b2:	0000                	unimp
 5b4:	0190                	c.addi4spn	x12,x2,192
 5b6:	5d05                	c.li	x26,-31
 5b8:	02a9                	c.addi	x5,10
 5ba:	0000                	unimp
 5bc:	6f0d                	c.lui	x30,0x3
 5be:	0004                	c.addi4spn	x9,x2,0
    while (p != buffer) {
 5c0:	0500                	c.addi4spn	x8,x2,640
 5c2:	a95e                	c.fsdsp	f23,144(x2)
	if (p[-1] == ' ' && p[-2] == ' ')
 5c4:	0002                	0x2
 5c6:	0000                	unimp
 5c8:	870d                	c.srai	x14,0x3
 5ca:	0004                	c.addi4spn	x9,x2,0
 5cc:	0500                	c.addi4spn	x8,x2,640
 5ce:	5d5f 0000 0400      	0x40000005d5f
 5d4:	c20d                	c.beqz	x12,5f6 <stats_print_dec+0xe6>
 5d6:	0002                	0x2
 5d8:	0500                	c.addi4spn	x8,x2,640
 5da:	af61                	c.j	d72 <timeout_msg+0x40>
 5dc:	0002                	0x2
 5de:	0800                	c.addi4spn	x8,x2,16
 5e0:	220d                	c.jal	702 <stats+0x8e>
 5e2:	0002                	0x2
 5e4:	0500                	c.addi4spn	x8,x2,640
 5e6:	1b62                	c.slli	x22,0x38
 5e8:	0002                	0x2
 5ea:	8800                	0x8800
	    p[-1] = '.';
 5ec:	0f00                	c.addi4spn	x8,x2,912
 5ee:	6b04                	c.flw	f9,16(x14)
 5f0:	0002                	0x2
 5f2:	0a00                	c.addi4spn	x8,x2,272
 5f4:	000002bf 000002bf 	0x2bf000002bf
	print_chr(*(--p));
 5fc:	00006e0b          	0x6e0b
 600:	1f00                	c.addi4spn	x8,x2,944
 602:	0f00                	c.addi4spn	x8,x2,912
 604:	c504                	c.sw	x9,8(x10)
 606:	0002                	0x2
 608:	1400                	c.addi4spn	x8,x2,544
 60a:	3110                	c.fld	f12,32(x10)
 60c:	0004                	c.addi4spn	x9,x2,0
 60e:	0800                	c.addi4spn	x8,x2,16
 610:	7505                	c.lui	x10,0xfffe1
 612:	000002eb          	0x2eb
 616:	070d                	c.addi	x14,3
    while (p != buffer) {
 618:	0002                	0x2
 61a:	0500                	c.addi4spn	x8,x2,640
 61c:	eb76                	c.fswsp	f29,148(x2)
 61e:	0002                	0x2
 620:	0000                	unimp
 622:	7f0d                	c.lui	x30,0xfffe3
}
 624:	0001                	c.nop
 626:	0500                	c.addi4spn	x8,x2,640
 628:	00005d77          	0x5d77
 62c:	0400                	c.addi4spn	x8,x2,512
 62e:	0f00                	c.addi4spn	x8,x2,912
 630:	2c04                	c.fld	f9,24(x8)
 632:	0000                	unimp
 634:	1000                	c.addi4spn	x8,x2,32
 636:	0459                	c.addi	x8,22
{
 638:	0000                	unimp
 63a:	0568                	c.addi4spn	x10,x2,652
 63c:	1bb5                	c.addi	x23,-19
 63e:	0004                	c.addi4spn	x9,x2,0
 640:	1100                	c.addi4spn	x8,x2,160
 642:	705f 0500 ebb6      	0xebb60500705f
    unsigned int pcmr = 1; /* global enable without saturation */
 648:	0002                	0x2
 64a:	0000                	unimp
    unsigned int pcer = 3; /* cycles and instr count enable */
 64c:	5f11                	c.li	x30,-28
 64e:	0072                	0x72
 650:	b705                	c.j	570 <stats_print_dec+0x60>
 652:	005d                	c.addi	x0,23
    __asm__ volatile("csrw 0x7e0, %0" ::"r"(pcer));
 654:	0000                	unimp
 656:	1104                	c.addi4spn	x9,x2,160
 658:	775f 0500 5db8      	0x5db80500775f
    __asm__ volatile("csrw 0x7e1, %0" ::"r"(pcmr));
 65e:	0000                	unimp
 660:	0800                	c.addi4spn	x8,x2,16
 662:	540d                	c.li	x8,-29
}
 664:	0002                	0x2
 666:	0500                	c.addi4spn	x8,x2,640
 668:	33b9                	c.jal	3b6 <print_chr+0x2e>
 66a:	0000                	unimp
 66c:	0c00                	c.addi4spn	x8,x2,528
 66e:	280d                	c.jal	6a0 <stats+0x2c>
 670:	05000003          	lb	x0,80(x0) # 50 <vector_table_timer+0x34>
{
 674:	33ba                	c.fldsp	f7,424(x2)
 676:	0000                	unimp
 678:	0e00                	c.addi4spn	x8,x2,784
 67a:	5f11                	c.li	x30,-28
 67c:	6662                	c.flwsp	f12,24(x2)
 67e:	0500                	c.addi4spn	x8,x2,640
 680:	0002c6bb          	0x2c6bb
    __asm__ volatile("csrr %0, 0x780" : "=r"(num_cycles));
 684:	1000                	c.addi4spn	x8,x2,32
 686:	c70d                	c.beqz	x14,6b0 <stats+0x3c>
 688:	0001                	c.nop
 68a:	0500                	c.addi4spn	x8,x2,640
    __asm__ volatile("csrr %0, 0x781" : "=r"(num_instr));
 68c:	5dbc                	c.lw	x15,120(x11)
 68e:	0000                	unimp
 690:	1800                	c.addi4spn	x8,x2,48
 692:	300d                	c.jal	fffffeb4 <pulp__FC+0xfffffeb5>
    print_str("Cycle counter ........");
 694:	0002                	0x2
 696:	0500                	c.addi4spn	x8,x2,640
 698:	00011ac3          	fmadd.s	f21,f2,f0,f0,rtz
    stats_print_dec(num_cycles, 8, false);
 69c:	1c00                	c.addi4spn	x8,x2,560
 69e:	f50d                	c.bnez	x10,5c8 <stats_print_dec+0xb8>
 6a0:	0002                	0x2
 6a2:	0500                	c.addi4spn	x8,x2,640
 6a4:	76c5                	c.lui	x13,0xffff1
 6a6:	0005                	c.addi	x0,1
 6a8:	2000                	c.fld	f8,0(x8)
 6aa:	a30d                	c.j	bcc <app+0x37c>
    print_str("\nInstruction counter ..");
 6ac:	05000003          	lb	x0,80(x0) # 50 <vector_table_timer+0x34>
 6b0:	0005a0c7          	fmsub.s	f1,f11,f0,f0,rdn
    stats_print_dec(num_instr, 8, false);
 6b4:	2400                	c.fld	f8,8(x8)
 6b6:	dc0d                	c.beqz	x8,5f0 <stats_print_dec+0xe0>
 6b8:	0004                	c.addi4spn	x9,x2,0
 6ba:	0500                	c.addi4spn	x8,x2,640
 6bc:	c4ca                	c.swsp	x18,72(x2)
 6be:	0005                	c.addi	x0,1
 6c0:	2800                	c.fld	f8,16(x8)
 6c2:	d80d                	c.beqz	x8,5f4 <stats_print_dec+0xe4>
    print_str("\nCPI: ");
 6c4:	0005                	c.addi	x0,1
 6c6:	0500                	c.addi4spn	x8,x2,640
 6c8:	0005decb          	fnmsub.s	f29,f11,f0,f0,unknown
    stats_print_dec((num_cycles / num_instr), 0, false);
 6cc:	2c00                	c.fld	f8,24(x8)
 6ce:	5f11                	c.li	x30,-28
 6d0:	6275                	c.lui	x4,0x1d
 6d2:	0500                	c.addi4spn	x8,x2,640
 6d4:	c6ce                	c.swsp	x19,76(x2)
 6d6:	0002                	0x2
 6d8:	3000                	c.fld	f8,32(x8)
 6da:	5f11                	c.li	x30,-28
 6dc:	7075                	0x7075
 6de:	0500                	c.addi4spn	x8,x2,640
 6e0:	0002ebcf          	fnmadd.s	f23,f5,f0,f0,unknown
 6e4:	3800                	c.fld	f8,48(x8)
 6e6:	5f11                	c.li	x30,-28
    print_str(".");
 6e8:	7275                	c.lui	x4,0xffffd
 6ea:	0500                	c.addi4spn	x8,x2,640
 6ec:	5dd0                	c.lw	x12,60(x11)
 6ee:	0000                	unimp
    stats_print_dec(((100 * num_cycles) / num_instr) % 100, 2, true);
 6f0:	3c00                	c.fld	f8,56(x8)
 6f2:	010d                	c.addi	x2,3
 6f4:	0002                	0x2
 6f6:	0500                	c.addi4spn	x8,x2,640
 6f8:	0005e4d3          	fadd.s	f9,f11,f0,unknown
 6fc:	4000                	c.lw	x8,0(x8)
 6fe:	b00d                	c.j	ffffff20 <pulp__FC+0xffffff21>
 700:	0005                	c.addi	x0,1
 702:	0500                	c.addi4spn	x8,x2,640
 704:	f4d4                	c.fsw	f13,44(x9)
 706:	0005                	c.addi	x0,1
 708:	4300                	c.lw	x8,0(x14)
 70a:	5f11                	c.li	x30,-28
 70c:	626c                	c.flw	f11,68(x12)
 70e:	0500                	c.addi4spn	x8,x2,640
 710:	0002c6d7          	pv.add.sc.h	x13,x5,x0
 714:	4400                	c.lw	x8,8(x8)
 716:	6a0d                	c.lui	x20,0x3
 718:	0002                	0x2
 71a:	0500                	c.addi4spn	x8,x2,640
    print_str("\n");
 71c:	5dda                	c.lwsp	x27,180(x2)
 71e:	0000                	unimp
 720:	4c00                	c.lw	x8,24(x8)
 722:	840d                	c.srai	x8,0x3
}
 724:	0002                	0x2
 726:	0500                	c.addi4spn	x8,x2,640
 728:	000087db          	p.mac	x15,x1,x0,x0
 72c:	5000                	c.lw	x8,32(x8)
 72e:	aa0d                	c.j	860 <app+0x10>
 730:	0005                	c.addi	x0,1
 732:	0500                	c.addi4spn	x8,x2,640
 734:	39de                	c.fldsp	f19,496(x2)
 736:	0004                	c.addi4spn	x9,x2,0
void init_data() {
 738:	5400                	c.lw	x8,40(x8)
 73a:	760d                	c.lui	x12,0xfffe3
 73c:	05000003          	lb	x0,80(x0) # 50 <vector_table_timer+0x34>
 740:	0fe2                	c.slli	x31,0x18
 742:	0001                	c.nop
    for(int i=0; i<MAX_FFT_SIZE; i++) twiddle_table[i] = 0;
 744:	5800                	c.lw	x8,48(x8)
 746:	610d                	c.addi16sp	x2,160
 748:	0004                	c.addi4spn	x9,x2,0
 74a:	0500                	c.addi4spn	x8,x2,640
 74c:	04e4                	c.addi4spn	x9,x2,588
 74e:	0001                	c.nop
 750:	5c00                	c.lw	x8,56(x8)
 752:	820d                	c.srli	x12,0x3
 754:	05000003          	lb	x0,80(x0) # 50 <vector_table_timer+0x34>
 758:	5de5                	c.li	x27,-7
 75a:	0000                	unimp
 75c:	6400                	c.flw	f8,8(x8)
 75e:	1500                	c.addi4spn	x8,x2,672
 760:	009d                	c.addi	x1,7
 762:	0000                	unimp
 764:	0439                	c.addi	x8,14
 766:	0000                	unimp
 768:	3916                	c.fldsp	f18,352(x2)
 76a:	0004                	c.addi4spn	x9,x2,0
 76c:	1600                	c.addi4spn	x8,x2,800
 76e:	011a                	c.slli	x2,0x6
 770:	0000                	unimp
 772:	1c16                	c.slli	x24,0x25
 774:	0001                	c.nop
 776:	1600                	c.addi4spn	x8,x2,800
 778:	005d                	c.addi	x0,23
 77a:	0000                	unimp
    twiddle_table[1] = COMBINE(32767, 0);       // W_2^0
 77c:	0f00                	c.addi4spn	x8,x2,912
 77e:	4404                	c.lw	x9,8(x8)
 780:	0004                	c.addi4spn	x9,x2,0
 782:	0500                	c.addi4spn	x8,x2,640
 784:	0439                	c.addi	x8,14
 786:	0000                	unimp
 788:	0004bf17          	auipc	x30,0x4b
    twiddle_table[2] = COMBINE(32767, 0);       // W_4^0
 78c:	2800                	c.fld	f8,16(x8)
 78e:	0504                	c.addi4spn	x9,x2,640
 790:	0239                	c.addi	x4,14
 792:	0576                	c.slli	x10,0x1d
 794:	0000                	unimp
 796:	2018                	c.fld	f14,0(x8)
 798:	0004                	c.addi4spn	x9,x2,0
 79a:	0500                	c.addi4spn	x8,x2,640
    twiddle_table[3] = COMBINE(0, -32767);      // W_4^1
 79c:	005d023b          	0x5d023b
 7a0:	0000                	unimp
 7a2:	1800                	c.addi4spn	x8,x2,48
 7a4:	00000263          	beq	x0,x0,7a8 <init_data+0x70>
 7a8:	4005                	0x4005
 7aa:	4b02                	c.lwsp	x22,0(x2)
 7ac:	0006                	0x6
 7ae:	0400                	c.addi4spn	x8,x2,512
    twiddle_table[4] = COMBINE(32767, 0);       // W_8^0
 7b0:	1818                	c.addi4spn	x14,x2,48
 7b2:	05000003          	lb	x0,80(x0) # 50 <vector_table_timer+0x34>
 7b6:	0240                	c.addi4spn	x8,x2,260
 7b8:	0000064b          	fnmsub.s	f12,f0,f0,f0,rne
 7bc:	1808                	c.addi4spn	x10,x2,48
 7be:	02d6                	c.slli	x5,0x15
    twiddle_table[5] = COMBINE(23170, -23170);  // W_8^1
 7c0:	0000                	unimp
 7c2:	4005                	0x4005
 7c4:	4b02                	c.lwsp	x22,0(x2)
 7c6:	0006                	0x6
 7c8:	0c00                	c.addi4spn	x8,x2,528
 7ca:	8218                	0x8218
 7cc:	0004                	c.addi4spn	x9,x2,0
 7ce:	0500                	c.addi4spn	x8,x2,640
 7d0:	0242                	c.slli	x4,0x10
 7d2:	005d                	c.addi	x0,23
    twiddle_table[6] = COMBINE(0, -32767);      // W_8^2
 7d4:	0000                	unimp
 7d6:	1810                	c.addi4spn	x12,x2,48
 7d8:	00000197          	auipc	x3,0x0
 7dc:	4305                	c.li	x6,1
 7de:	2d02                	c.fldsp	f26,0(x2)
 7e0:	0008                	c.addi4spn	x10,x2,0
 7e2:	1400                	c.addi4spn	x8,x2,544
 7e4:	9e18                	0x9e18
 7e6:	0004                	c.addi4spn	x9,x2,0
    twiddle_table[7] = COMBINE(-23170, -23170); // W_8^3
 7e8:	0500                	c.addi4spn	x8,x2,640
 7ea:	0246                	c.slli	x4,0x11
 7ec:	005d                	c.addi	x0,23
 7ee:	0000                	unimp
 7f0:	1830                	c.addi4spn	x12,x2,56
 7f2:	048c                	c.addi4spn	x11,x2,576
 7f4:	0000                	unimp
 7f6:	4705                	c.li	x14,1
 7f8:	4202                	c.lwsp	x4,0(x2)
 7fa:	0008                	c.addi4spn	x10,x2,0
    for(int i=0; i<N; i++) {
 7fc:	3400                	c.fld	f8,40(x8)
 7fe:	eb18                	c.fsw	f14,16(x14)
 800:	05000003          	lb	x0,80(x0) # 50 <vector_table_timer+0x34>
        data_out[i] = COMBINE(i*100, 0); 
 804:	0249                	c.addi	x4,18
 806:	005d                	c.addi	x0,23
 808:	0000                	unimp
 80a:	1838                	c.addi4spn	x14,x2,56
 80c:	0494                	c.addi4spn	x13,x2,576
 80e:	0000                	unimp
 810:	4b05                	c.li	x22,1
 812:	5302                	c.lwsp	x6,32(x2)
 814:	0008                	c.addi4spn	x10,x2,0
 816:	3c00                	c.fld	f8,56(x8)
 818:	6118                	c.flw	f14,0(x10)
 81a:	05000003          	lb	x0,80(x0) # 50 <vector_table_timer+0x34>
 81e:	024e                	c.slli	x4,0x13
 820:	018c                	c.addi4spn	x11,x2,192
 822:	0000                	unimp
 824:	1840                	c.addi4spn	x8,x2,52
 826:	034a                	c.slli	x6,0x12
    for(int i=0; i<N; i++) {
 828:	0000                	unimp
 82a:	4f05                	c.li	x30,1
 82c:	5d02                	c.lwsp	x26,32(x2)
 82e:	0000                	unimp
 830:	4400                	c.lw	x8,8(x8)
 832:	f218                	c.fsw	f14,32(x12)
 834:	0005                	c.addi	x0,1
 836:	0500                	c.addi4spn	x8,x2,640
 838:	0250                	c.addi4spn	x12,x2,260
 83a:	018c                	c.addi4spn	x11,x2,192
 83c:	0000                	unimp
 83e:	1848                	c.addi4spn	x10,x2,52
}
 840:	03fd                	c.addi	x7,31
 842:	0000                	unimp
 844:	5105                	c.li	x2,-31
 846:	5902                	c.lwsp	x18,32(x2)
 848:	0008                	c.addi4spn	x10,x2,0
 84a:	4c00                	c.lw	x8,24(x8)
 84c:	2018                	c.fld	f14,0(x8)
 84e:	05000003          	lb	x0,80(x0) # 50 <vector_table_timer+0x34>
int app() {
 852:	0254                	c.addi4spn	x13,x2,260
 854:	005d                	c.addi	x0,23
 856:	0000                	unimp
 858:	1850                	c.addi4spn	x12,x2,52
 85a:	027c                	c.addi4spn	x15,x2,268
 85c:	0000                	unimp
 85e:	5505                	c.li	x10,-31
    init_data();
 860:	1c02                	c.slli	x24,0x20
 862:	0001                	c.nop
    print_str("Starting Hybrid FFT (II=1, 8x8 8-Bank Mode)...\n");
 864:	5400                	c.lw	x8,40(x8)
 866:	1918                	c.addi4spn	x14,x2,176
 868:	0004                	c.addi4spn	x9,x2,0
 86a:	0500                	c.addi4spn	x8,x2,640
    volatile int *ptr_in_a = BANK1_BASE;
 86c:	0278                	c.addi4spn	x14,x2,268
 86e:	0000080b          	p.lb	x16,0(x0!) # 0 <__irq_base_vector>
 872:	1958                	c.addi4spn	x14,x2,180
    volatile int *ptr_in_b = BANK2_BASE;
 874:	03d9                	c.addi	x7,22
 876:	0000                	unimp
 878:	7c05                	c.lui	x24,0xfffe1
 87a:	a902                	c.fsdsp	f0,144(x2)
    volatile int *ptr_w    = BANK3_BASE;
 87c:	0002                	0x2
 87e:	4800                	c.lw	x8,16(x8)
 880:	1901                	c.addi	x18,-32
 882:	0341                	c.addi	x6,16
    volatile int *ptr_out_a = BANK4_BASE;
 884:	0000                	unimp
 886:	7d05                	c.lui	x26,0xfffe1
 888:	6b02                	c.flwsp	f22,0(x2)
 88a:	0002                	0x2
    volatile int *ptr_out_b = BANK5_BASE;
 88c:	4c00                	c.lw	x8,24(x8)
 88e:	1901                	c.addi	x18,-32
 890:	059c                	c.addi4spn	x15,x2,704
 892:	0000                	unimp
    const int HW_LATENCY = 30; // 假设延迟，可根据仿真微调
 894:	8105                	c.srli	x10,0x1
 896:	6a02                	c.flwsp	f20,0(x2)
 898:	0008                	c.addi4spn	x10,x2,0
 89a:	dc00                	c.sw	x8,56(x8)
    const int HW_II = 1;       // 映射结果确认 II=1
 89c:	1902                	c.slli	x18,0x20
 89e:	0238                	c.addi4spn	x14,x2,264
 8a0:	0000                	unimp
 8a2:	8605                	c.srai	x12,0x1
    int basedist = 1;
 8a4:	1002                	0x1002
 8a6:	0006                	0x6
 8a8:	e000                	c.fsw	f8,0(x8)
 8aa:	1902                	c.slli	x18,0x20
    for (int BlockSize = 2; BlockSize <= N; BlockSize <<= 1) {
 8ac:	021d                	c.addi	x4,7
 8ae:	0000                	unimp
 8b0:	8705                	c.srai	x14,0x1
 8b2:	7602                	c.flwsp	f12,32(x2)
 8b4:	0008                	c.addi4spn	x10,x2,0
 8b6:	ec00                	c.fsw	f8,24(x8)
        int batch_count = 0;
 8b8:	0002                	0x2
 8ba:	041b040f          	0x41b040f
        for (int i = 0; i < N; i += BlockSize) {
 8be:	0000                	unimp
 8c0:	9d15                	0x9d15
 8c2:	0000                	unimp
            for (int j = i, n = 0; n < basedist; j++, n++) {
 8c4:	9a00                	0x9a00
 8c6:	0005                	c.addi	x0,1
 8c8:	1600                	c.addi4spn	x8,x2,800
 8ca:	0439                	c.addi	x8,14
 8cc:	0000                	unimp
 8ce:	1a16                	c.slli	x20,0x25
 8d0:	0001                	c.nop
 8d2:	1600                	c.addi4spn	x8,x2,800
                int k = j + basedist;
 8d4:	059a                	c.slli	x11,0x6
 8d6:	0000                	unimp
 8d8:	5d16                	c.lwsp	x26,100(x2)
 8da:	0000                	unimp
 8dc:	0000                	unimp
 8de:	0129040f          	0x129040f
 8e2:	0000                	unimp
                int table_index = basedist + n;
 8e4:	057c040f          	0x57c040f
 8e8:	0000                	unimp
 8ea:	9215                	c.srli	x12,0x25
 8ec:	0000                	unimp
 8ee:	c400                	c.sw	x8,8(x8)
 8f0:	0005                	c.addi	x0,1
 8f2:	1600                	c.addi4spn	x8,x2,800
                ptr_in_a[batch_count] = data_out[j];
 8f4:	0439                	c.addi	x8,14
 8f6:	0000                	unimp
 8f8:	1a16                	c.slli	x20,0x25
 8fa:	0001                	c.nop
 8fc:	1600                	c.addi4spn	x8,x2,800
 8fe:	0092                	c.slli	x1,0x4
 900:	0000                	unimp
 902:	5d16                	c.lwsp	x26,100(x2)
 904:	0000                	unimp
 906:	0000                	unimp
 908:	05a6040f          	0x5a6040f
 90c:	0000                	unimp
 90e:	5d15                	c.li	x26,-27
 910:	0000                	unimp
 912:	de00                	c.sw	x8,56(x12)
 914:	0005                	c.addi	x0,1
 916:	1600                	c.addi4spn	x8,x2,800
 918:	0439                	c.addi	x8,14
 91a:	0000                	unimp
                ptr_in_b[batch_count] = data_out[k];
 91c:	1a16                	c.slli	x20,0x25
 91e:	0001                	c.nop
 920:	0000                	unimp
 922:	05ca040f          	0x5ca040f
 926:	0000                	unimp
 928:	2c0a                	c.fldsp	f24,128(x2)
 92a:	0000                	unimp
 92c:	f400                	c.fsw	f8,40(x8)
 92e:	0005                	c.addi	x0,1
 930:	0b00                	c.addi4spn	x8,x2,400
 932:	006e                	0x6e
 934:	0000                	unimp
 936:	0002                	0x2
 938:	2c0a                	c.fldsp	f24,128(x2)
 93a:	0000                	unimp
 93c:	0400                	c.addi4spn	x8,x2,512
 93e:	0006                	0x6
 940:	0b00                	c.addi4spn	x8,x2,400
 942:	006e                	0x6e
                ptr_w[batch_count] = twiddle_table[table_index];
 944:	0000                	unimp
 946:	0000                	unimp
 948:	00044707          	0x44707
 94c:	0500                	c.addi4spn	x8,x2,640
 94e:	011f 02f1 0000      	0x2f1011f
 954:	831a                	c.mv	x6,x6
 956:	0005                	c.addi	x0,1
 958:	0c00                	c.addi4spn	x8,x2,528
 95a:	2305                	c.jal	e7a <_data_lma_start+0x86>
 95c:	4501                	c.li	x10,0
 95e:	0006                	0x6
 960:	1800                	c.addi4spn	x8,x2,48
 962:	0000046f          	jal	x8,962 <app+0x112>
 966:	2505                	c.jal	f86 <_data_lma_start+0x192>
 968:	4501                	c.li	x10,0
 96a:	0006                	0x6
 96c:	0000                	unimp
 96e:	2e18                	c.fld	f14,24(x12)
                batch_count++;
 970:	05000003          	lb	x0,80(x0) # 50 <vector_table_timer+0x34>
 974:	0126                	c.slli	x2,0x9
 976:	005d                	c.addi	x0,23
 978:	0000                	unimp
 97a:	1804                	c.addi4spn	x9,x2,48
            for (int j = i, n = 0; n < basedist; j++, n++) {
 97c:	0441                	c.addi	x8,16
 97e:	0000                	unimp
 980:	2705                	c.jal	10a0 <__bss_end+0x98>
 982:	4b01                	c.li	x22,0
 984:	0006                	0x6
 986:	0800                	c.addi4spn	x8,x2,16
 988:	0f00                	c.addi4spn	x8,x2,912
 98a:	1004                	c.addi4spn	x9,x2,32
 98c:	0006                	0x6
 98e:	0f00                	c.addi4spn	x8,x2,912
 990:	0404                	c.addi4spn	x9,x2,512
 992:	0006                	0x6
 994:	1a00                	c.addi4spn	x8,x2,304
 996:	0000018f          	0x18f
 99a:	050e                	c.slli	x10,0x3
 99c:	0686013f c6180000 	0xc61800000686013f
        for (int i = 0; i < N; i += BlockSize) {
 9a4:	0004                	c.addi4spn	x9,x2,0
 9a6:	0500                	c.addi4spn	x8,x2,640
 9a8:	0140                	c.addi4spn	x8,x2,132
 9aa:	0686                	c.slli	x13,0x1
 9ac:	0000                	unimp
 9ae:	1800                	c.addi4spn	x8,x2,48
 9b0:	0000050b          	p.lb	x10,0(x0!) # 0 <__irq_base_vector>
 9b4:	4105                	c.li	x2,1
 9b6:	8601                	c.srai	x12,0x0
 9b8:	0006                	0x6
 9ba:	0600                	c.addi4spn	x8,x2,768
        MMIO_WRITE(PORT_IN_A_ADDR,   (int)ptr_in_a);
 9bc:	3a18                	c.fld	f14,48(x12)
 9be:	0005                	c.addi	x0,1
 9c0:	0500                	c.addi4spn	x8,x2,640
 9c2:	0142                	c.slli	x2,0x10
 9c4:	003a                	0x3a
 9c6:	0000                	unimp
 9c8:	000c                	c.addi4spn	x11,x2,0
 9ca:	3a0a                	c.fldsp	f20,160(x2)
        MMIO_WRITE(PORT_IN_B_ADDR,   (int)ptr_in_b);
 9cc:	0000                	unimp
 9ce:	9600                	0x9600
 9d0:	0006                	0x6
 9d2:	0b00                	c.addi4spn	x8,x2,400
 9d4:	006e                	0x6e
 9d6:	0000                	unimp
        MMIO_WRITE(PORT_WEIGHT_ADDR, (int)ptr_w);
 9d8:	0002                	0x2
 9da:	5905d01b          	0x5905d01b
 9de:	9702                	c.jalr	x14
 9e0:	18000007          	0x18000007
 9e4:	00000567          	jalr	x10,0(x0) # 0 <__irq_base_vector>
        MMIO_WRITE(PORT_OUT_A_ADDR,  (int)ptr_out_a);
 9e8:	5b05                	c.li	x22,-31
 9ea:	6e02                	c.flwsp	f28,0(x2)
 9ec:	0000                	unimp
 9ee:	0000                	unimp
 9f0:	1b18                	c.addi4spn	x14,x2,432
 9f2:	0005                	c.addi	x0,1
 9f4:	0500                	c.addi4spn	x8,x2,640
 9f6:	025c                	c.addi4spn	x15,x2,260
        MMIO_WRITE(PORT_OUT_B_ADDR,  (int)ptr_out_b);
 9f8:	011c                	c.addi4spn	x15,x2,128
 9fa:	0000                	unimp
 9fc:	1804                	c.addi4spn	x9,x2,48
 9fe:	0354                	c.addi4spn	x13,x2,388
 a00:	0000                	unimp
 a02:	5d05                	c.li	x26,-31
 a04:	9702                	c.jalr	x14
 a06:	08000007          	0x8000007
        int exec_cycles = HW_LATENCY + (batch_count - 1) * HW_II;
 a0a:	c918                	c.sw	x14,16(x10)
 a0c:	0005                	c.addi	x0,1
 a0e:	0500                	c.addi4spn	x8,x2,640
 a10:	025e                	c.slli	x4,0x17
 a12:	01a2                	c.slli	x3,0x8
 a14:	0000                	unimp
 a16:	1824                	c.addi4spn	x9,x2,56
 a18:	02e6                	c.slli	x5,0x19
 a1a:	0000                	unimp
 a1c:	5f05                	c.li	x30,-31
 a1e:	5d02                	c.lwsp	x26,32(x2)
 a20:	0000                	unimp
 a22:	4800                	c.lw	x8,16(x8)
        MMIO_WRITE(CGRA_LOOP_CNT_ADDR, exec_cycles);
 a24:	6a18                	c.flw	f14,16(x12)
 a26:	0004                	c.addi4spn	x9,x2,0
 a28:	0500                	c.addi4spn	x8,x2,640
 a2a:	0260                	c.addi4spn	x8,x2,268
 a2c:	0056                	0x56
 a2e:	0000                	unimp
 a30:	1850                	c.addi4spn	x12,x2,52
 a32:	05df 0000 6105      	0x6105000005df
        MMIO_WRITE(CGRA_ENABLE_ADDR, 1);
 a38:	5102                	c.lwsp	x2,32(x2)
 a3a:	0006                	0x6
 a3c:	5800                	c.lw	x8,48(x8)
 a3e:	7518                	c.flw	f14,40(x10)
 a40:	0004                	c.addi4spn	x9,x2,0
 a42:	0500                	c.addi4spn	x8,x2,640
        while (MMIO_READ(CGRA_DONE_ADDR) != 1);
 a44:	0262                	c.slli	x4,0x18
 a46:	0104                	c.addi4spn	x9,x2,128
 a48:	0000                	unimp
 a4a:	1868                	c.addi4spn	x10,x2,60
 a4c:	05e4                	c.addi4spn	x9,x2,716
 a4e:	0000                	unimp
 a50:	6305                	c.lui	x6,0x1
 a52:	0402                	c.slli	x8,0x0
 a54:	0001                	c.nop
 a56:	7000                	c.flw	f8,32(x8)
 a58:	ea18                	c.fsw	f14,16(x12)
 a5a:	0001                	c.nop
        MMIO_WRITE(CGRA_ENABLE_ADDR, 0);
 a5c:	0500                	c.addi4spn	x8,x2,640
 a5e:	0264                	c.addi4spn	x9,x2,268
 a60:	0104                	c.addi4spn	x9,x2,128
 a62:	0000                	unimp
 a64:	1878                	c.addi4spn	x14,x2,60
 a66:	0592                	c.slli	x11,0x4
        MMIO_WRITE(CGRA_RESET_ADDR, 1);
 a68:	0000                	unimp
 a6a:	6505                	c.lui	x10,0x1
 a6c:	a702                	c.fsdsp	f0,392(x2)
 a6e:	80000007          	0x80000007
 a72:	bb18                	c.fsd	f14,48(x14)
 a74:	0001                	c.nop
 a76:	0500                	c.addi4spn	x8,x2,640
        volatile int dummy = 0; dummy++; 
 a78:	0266                	c.slli	x4,0x19
 a7a:	000007b7          	lui	x15,0x0
 a7e:	1888                	c.addi4spn	x10,x2,112
 a80:	00000547          	fmsub.s	f10,f0,f0,f0,rne
 a84:	6705                	c.lui	x14,0x1
 a86:	5d02                	c.lwsp	x26,32(x2)
        MMIO_WRITE(CGRA_RESET_ADDR, 0);
 a88:	0000                	unimp
 a8a:	a000                	c.fsd	f8,0(x8)
 a8c:	9d18                	0x9d18
 a8e:	0002                	0x2
 a90:	0500                	c.addi4spn	x8,x2,640
 a92:	0268                	c.addi4spn	x10,x2,268
        batch_count = 0;
 a94:	0104                	c.addi4spn	x9,x2,128
 a96:	0000                	unimp
        for (int i = 0; i < N; i += BlockSize) {
 a98:	18a4                	c.addi4spn	x9,x2,120
 a9a:	000001db          	p.mac	x3,x0,x0,x0
 a9e:	6905                	c.lui	x18,0x1
            for (int j = i, n = 0; n < basedist; j++, n++) {
 aa0:	0402                	c.slli	x8,0x0
 aa2:	0001                	c.nop
 aa4:	ac00                	c.fsd	f8,24(x8)
 aa6:	8c18                	0x8c18
 aa8:	0002                	0x2
 aaa:	0500                	c.addi4spn	x8,x2,640
 aac:	026a                	c.slli	x4,0x1a
 aae:	0104                	c.addi4spn	x9,x2,128
                int k = j + basedist;
 ab0:	0000                	unimp
 ab2:	18b4                	c.addi4spn	x13,x2,120
 ab4:	01a2                	c.slli	x3,0x8
 ab6:	0000                	unimp
 ab8:	6b05                	c.lui	x22,0x1
 aba:	0402                	c.slli	x8,0x0
 abc:	0001                	c.nop
 abe:	bc00                	c.fsd	f8,56(x8)
                data_out[j] = ptr_out_a[batch_count];
 ac0:	0718                	c.addi4spn	x14,x2,896
 ac2:	05000003          	lb	x0,80(x0) # 50 <vector_table_timer+0x34>
 ac6:	026c                	c.addi4spn	x11,x2,268
 ac8:	0104                	c.addi4spn	x9,x2,128
 aca:	0000                	unimp
 acc:	18c4                	c.addi4spn	x9,x2,116
 ace:	041e                	c.slli	x8,0x7
 ad0:	0000                	unimp
 ad2:	6d05                	c.lui	x26,0x1
 ad4:	5d02                	c.lwsp	x26,32(x2)
 ad6:	0000                	unimp
 ad8:	cc00                	c.sw	x8,24(x8)
 ada:	0a00                	c.addi4spn	x8,x2,272
 adc:	0122                	c.slli	x2,0x8
 ade:	0000                	unimp
 ae0:	000007a7          	0x7a7
 ae4:	00006e0b          	0x6e0b
                data_out[k] = ptr_out_b[batch_count];
 ae8:	1900                	c.addi4spn	x8,x2,176
 aea:	0a00                	c.addi4spn	x8,x2,272
 aec:	0122                	c.slli	x2,0x8
 aee:	0000                	unimp
 af0:	000007b7          	lui	x15,0x0
 af4:	00006e0b          	0x6e0b
 af8:	0700                	c.addi4spn	x8,x2,896
 afa:	0a00                	c.addi4spn	x8,x2,272
 afc:	0122                	c.slli	x2,0x8
 afe:	0000                	unimp
 b00:	000007c7          	fmsub.s	f15,f0,f0,f0,rne
 b04:	00006e0b          	0x6e0b
 b08:	1700                	c.addi4spn	x8,x2,928
 b0a:	1b00                	c.addi4spn	x8,x2,432
 b0c:	05f0                	c.addi4spn	x12,x2,716
 b0e:	0272                	c.slli	x4,0x1c
                batch_count++;
 b10:	000007eb          	0x7eb
 b14:	c918                	c.sw	x14,16(x10)
 b16:	05000003          	lb	x0,80(x0) # 50 <vector_table_timer+0x34>
 b1a:	0275                	c.addi	x4,29
            for (int j = i, n = 0; n < basedist; j++, n++) {
 b1c:	000007eb          	0x7eb
 b20:	1800                	c.addi4spn	x8,x2,48
 b22:	03b4                	c.addi4spn	x13,x2,456
 b24:	0000                	unimp
 b26:	7605                	c.lui	x12,0xfffe1
 b28:	fb02                	c.fswsp	f0,180(x2)
 b2a:	78000007          	0x78000007
 b2e:	0a00                	c.addi4spn	x8,x2,272
 b30:	000002eb          	0x2eb
 b34:	000007fb          	lp.starti	x15,b34 <app+0x2e4>
 b38:	00006e0b          	0x6e0b
 b3c:	1d00                	c.addi4spn	x8,x2,688
 b3e:	0a00                	c.addi4spn	x8,x2,272
        for (int i = 0; i < N; i += BlockSize) {
 b40:	006e                	0x6e
 b42:	0000                	unimp
 b44:	0000080b          	p.lb	x16,0(x0!) # 0 <__irq_base_vector>
 b48:	00006e0b          	0x6e0b
 b4c:	1d00                	c.addi4spn	x8,x2,688
 b4e:	1c00                	c.addi4spn	x8,x2,560
 b50:	05f0                	c.addi4spn	x12,x2,716
 b52:	082d0257          	pv.sub.h	x4,x26,x2
 b56:	0000                	unimp
 b58:	bf1d                	c.j	a8e <app+0x23e>
 b5a:	0004                	c.addi4spn	x9,x2,0
        basedist <<= 1;
 b5c:	0500                	c.addi4spn	x8,x2,640
 b5e:	026e                	c.slli	x4,0x1b
 b60:	0696                	c.slli	x13,0x5
 b62:	0000                	unimp
 b64:	b61d                	c.j	68a <stats+0x16>
 b66:	0005                	c.addi	x0,1
    for (int BlockSize = 2; BlockSize <= N; BlockSize <<= 1) {
 b68:	0500                	c.addi4spn	x8,x2,640
 b6a:	07c70277          	0x7c70277
 b6e:	0000                	unimp
 b70:	0a00                	c.addi4spn	x8,x2,272
 b72:	0122                	c.slli	x2,0x8
 b74:	0000                	unimp
 b76:	083d                	c.addi	x16,15
 b78:	0000                	unimp
 b7a:	00006e0b          	0x6e0b
 b7e:	1800                	c.addi4spn	x8,x2,48
    print_str("FFT Done.\n");
 b80:	1e00                	c.addi4spn	x8,x2,816
 b82:	01d0                	c.addi4spn	x12,x2,196
 b84:	0000                	unimp
 b86:	083d040f          	0x83d040f
    for(int i=0; i<N; i++) {
 b8a:	0000                	unimp
 b8c:	531f 0008 1600      	0x16000008531f
        print_str("Out[");
 b92:	0439                	c.addi	x8,14
 b94:	0000                	unimp
 b96:	0f00                	c.addi4spn	x8,x2,912
        print_dec(i);
 b98:	4804                	c.lw	x9,16(x8)
 b9a:	0008                	c.addi4spn	x10,x2,0
 b9c:	0f00                	c.addi4spn	x8,x2,912
 b9e:	8c04                	0x8c04
 ba0:	0001                	c.nop
 ba2:	1f00                	c.addi4spn	x8,x2,944
        print_str("]: ");
 ba4:	086a                	c.slli	x16,0x1a
 ba6:	0000                	unimp
 ba8:	5d16                	c.lwsp	x26,100(x2)
 baa:	0000                	unimp
        print_dec(GET_REAL(data_out[i]));
 bac:	0000                	unimp
 bae:	0870040f          	0x870040f
 bb2:	0000                	unimp
 bb4:	085f040f          	0x85f040f
 bb8:	0000                	unimp
 bba:	040a                	c.slli	x8,0x2
 bbc:	0006                	0x6
 bbe:	8600                	0x8600
 bc0:	0008                	c.addi4spn	x10,x2,0
 bc2:	0b00                	c.addi4spn	x8,x2,400
 bc4:	006e                	0x6e
 bc6:	0000                	unimp
 bc8:	0002                	0x2
 bca:	5b20                	c.lw	x8,112(x14)
 bcc:	0005                	c.addi	x0,1
 bce:	0500                	c.addi4spn	x8,x2,640
 bd0:	02fe                	c.slli	x5,0x1f
 bd2:	0439                	c.addi	x8,14
        print_str(" + ");
 bd4:	0000                	unimp
 bd6:	5420                	c.lw	x8,104(x8)
 bd8:	0005                	c.addi	x0,1
 bda:	0500                	c.addi4spn	x8,x2,640
        print_dec(GET_IMAG(data_out[i]));
 bdc:	02ff                	0x2ff
 bde:	0000043f 0003e121 	0x3e1210000043f
 be6:	0600                	c.addi4spn	x8,x2,768
 be8:	00011c63          	bne	x2,x0,c00 <app+0x3b0>
 bec:	0a00                	c.addi4spn	x8,x2,272
 bee:	005d                	c.addi	x0,23
 bf0:	0000                	unimp
 bf2:	08ba                	c.slli	x17,0xe
 bf4:	0000                	unimp
 bf6:	6e22                	c.flwsp	f28,8(x2)
 bf8:	0000                	unimp
 bfa:	ff00                	c.fsw	f8,56(x14)
 bfc:	0001                	c.nop
 bfe:	0002b923          	0x2b923
        print_str("i\n");
 c02:	0100                	c.addi4spn	x8,x2,128
 c04:	0008a947          	fmsub.s	f18,f17,f0,f0,rdn
    for(int i=0; i<N; i++) {
 c08:	0500                	c.addi4spn	x8,x2,640
 c0a:	00000803          	lb	x16,0(x0) # 0 <__irq_base_vector>
 c0e:	2300                	c.fld	f8,0(x14)
 c10:	038a                	c.slli	x7,0x2
 c12:	0000                	unimp
 c14:	4801                	c.li	x16,0
 c16:	08a9                	c.addi	x17,10
 c18:	0000                	unimp
 c1a:	0305                	c.addi	x6,1
 c1c:	0808                	c.addi4spn	x10,x2,16
 c1e:	0000                	unimp
    return 0;
 c20:	4e24                	c.lw	x9,88(x12)
 c22:	0100                	c.addi4spn	x8,x2,128
 c24:	5d49                	c.li	x26,-14
 c26:	0000                	unimp
 c28:	0500                	c.addi4spn	x8,x2,640
 c2a:	00000403          	lb	x8,0(x0) # 0 <__irq_base_vector>
 c2e:	2500                	c.fld	f8,8(x10)
 c30:	7061                	0x7061
 c32:	0070                	c.addi4spn	x12,x2,12
 c34:	6201                	c.lui	x4,0x0
 c36:	005d                	c.addi	x0,23
	j vector_table
 c38:	0000                	unimp
 c3a:	0850                	c.addi4spn	x12,x2,20
	j __no_irq_handler
 c3c:	0000                	unimp
 c3e:	03e8                	c.addi4spn	x10,x2,460
	j __no_irq_handler
 c40:	0000                	unimp
 c42:	9c01                	0x9c01
	j vector_table_timer
 c44:	00000a93          	addi	x21,x0,0
 c48:	3826                	c.fldsp	f16,104(x2)
 c4a:	0004                	c.addi4spn	x9,x2,0
 c4c:	0100                	c.addi4spn	x8,x2,128
 c4e:	9368                	0x9368
 c50:	000a                	0xa
 c52:	0200                	c.addi4spn	x8,x2,256
 c54:	4491                	c.li	x9,4
 c56:	3126                	c.fldsp	f2,104(x2)
 c58:	0005                	c.addi	x0,1
 c5a:	0100                	c.addi4spn	x8,x2,128
 c5c:	000a936b          	0xa936b
 c60:	0200                	c.addi4spn	x8,x2,256
 c62:	4091                	c.li	x1,4
 c64:	7c26                	c.flwsp	f24,104(x2)
 c66:	01000003          	lb	x0,16(x0) # 10 <_data_end+0x8>
 c6a:	936e                	c.add	x6,x27
 c6c:	000a                	0xa
 c6e:	0300                	c.addi4spn	x8,x2,384
 c70:	bc91                	c.j	6c4 <stats+0x50>
 c72:	267f                	0x267f
 c74:	0511                	c.addi	x10,4
 c76:	0000                	unimp
 c78:	7101                	c.addi16sp	x2,-512
 c7a:	00000a93          	addi	x21,x0,0
 c7e:	7fb89103          	lh	x2,2043(x17)
 c82:	8526                	c.mv	x10,x9
 c84:	0001                	c.nop
 c86:	0100                	c.addi4spn	x8,x2,128
 c88:	9374                	0x9374
 c8a:	000a                	0xa
 c8c:	0300                	c.addi4spn	x8,x2,384
 c8e:	b491                	c.j	6d2 <stats+0x5e>
 c90:	267f                	0x267f
 c92:	0398                	c.addi4spn	x14,x2,448
 c94:	0000                	unimp
 c96:	7801                	c.lui	x16,0xfffe0
 c98:	0069                	c.addi	x0,26
 c9a:	0000                	unimp
 c9c:	7fb09103          	lh	x2,2043(x1) # 47fb <__bss_end+0x37f3>
 ca0:	b326                	c.fsdsp	f9,416(x2)
 ca2:	0002                	0x2
 ca4:	0100                	c.addi4spn	x8,x2,128
 ca6:	6979                	c.lui	x18,0x1e
 ca8:	0000                	unimp
 caa:	0300                	c.addi4spn	x8,x2,384
 cac:	ac91                	c.j	f00 <_data_lma_start+0x10c>
 cae:	267f                	0x267f
 cb0:	00000273          	0x273
 cb4:	7b01                	c.lui	x22,0xfffe0
 cb6:	005d                	c.addi	x0,23
 cb8:	0000                	unimp
 cba:	9102                	c.jalr	x2
 cbc:	276c                	c.fld	f11,200(x14)
 cbe:	08ac                	c.addi4spn	x11,x2,88
 cc0:	0000                	unimp
 cc2:	02d4                	c.addi4spn	x13,x2,324
 cc4:	0000                	unimp
 cc6:	0a7c                	c.addi4spn	x15,x2,284
 cc8:	0000                	unimp
 cca:	b126                	c.fsdsp	f9,160(x2)
 ccc:	0001                	c.nop
 cce:	0100                	c.addi4spn	x8,x2,128
 cd0:	5d7e                	c.lwsp	x26,252(x2)
 cd2:	0000                	unimp
 cd4:	0200                	c.addi4spn	x8,x2,256
 cd6:	6891                	c.lui	x17,0x4
 cd8:	b828                	c.fsd	f10,112(x8)
 cda:	0008                	c.addi4spn	x10,x2,0
 cdc:	b000                	c.fsd	f8,32(x8)
 cde:	0002                	0x2
 ce0:	2600                	c.fld	f8,8(x12)
 ce2:	04ea                	c.slli	x9,0x1a
 ce4:	0000                	unimp
 ce6:	8001                	c.srli	x8,0x0
 ce8:	005d                	c.addi	x0,23
 cea:	0000                	unimp
 cec:	9102                	c.jalr	x2
 cee:	2664                	c.fld	f9,200(x12)
 cf0:	0335                	c.addi	x6,13
 cf2:	0000                	unimp
 cf4:	9d01                	0x9d01
 cf6:	005d                	c.addi	x0,23
 cf8:	0000                	unimp
 cfa:	7fa89103          	lh	x2,2042(x17) # 47fa <__bss_end+0x37f2>
 cfe:	0d26                	c.slli	x26,0x9
 d00:	0002                	0x2
 d02:	0100                	c.addi4spn	x8,x2,128
 d04:	64a9                	c.lui	x9,0xa
 d06:	0000                	unimp
 d08:	0300                	c.addi4spn	x8,x2,384
 d0a:	9891                	c.andi	x9,-28
 d0c:	277f                	0x277f
 d0e:	08bc                	c.addi4spn	x15,x2,88
 d10:	0000                	unimp
 d12:	0100                	c.addi4spn	x8,x2,128
 d14:	0000                	unimp
 d16:	00000a2b          	p.sb	x0,20(x0!) # 14 <_data_end+0xc>
 d1a:	6929                	c.lui	x18,0xa
 d1c:	0100                	c.addi4spn	x8,x2,128
 d1e:	00005d83          	lhu	x27,0(x0) # 0 <__irq_base_vector>
 d22:	0200                	c.addi4spn	x8,x2,256
 d24:	6091                	c.lui	x1,0x4
 d26:	c428                	c.sw	x10,72(x8)
 d28:	0008                	c.addi4spn	x10,x2,0
 d2a:	dc00                	c.sw	x8,56(x8)
 d2c:	0000                	unimp
 d2e:	2900                	c.fld	f8,16(x10)
 d30:	006a                	0x6a
 d32:	8401                	c.srai	x8,0x0
 d34:	005d                	c.addi	x0,23
 d36:	0000                	unimp
 d38:	9102                	c.jalr	x2
 d3a:	295c                	c.fld	f15,144(x10)
 d3c:	006e                	0x6e
 d3e:	8401                	c.srai	x8,0x0
 d40:	005d                	c.addi	x0,23
 d42:	0000                	unimp
 d44:	9102                	c.jalr	x2
 d46:	2858                	c.fld	f14,144(x8)
 d48:	08d4                	c.addi4spn	x13,x2,84
 d4a:	0000                	unimp
 d4c:	00a8                	c.addi4spn	x10,x2,72
 d4e:	0000                	unimp
 d50:	6b29                	c.lui	x22,0xa
 d52:	0100                	c.addi4spn	x8,x2,128
 d54:	5d85                	c.li	x27,-31
 d56:	0000                	unimp
 d58:	0300                	c.addi4spn	x8,x2,384
 d5a:	a091                	c.j	d9e <timeout_msg+0x6c>
 d5c:	267f                	0x267f
 d5e:	04f6                	c.slli	x9,0x1d
 d60:	0000                	unimp
 d62:	8601                	c.srai	x12,0x0
 d64:	005d                	c.addi	x0,23
 d66:	0000                	unimp
 d68:	7f9c9103          	lh	x2,2041(x25)
 d6c:	0000                	unimp
 d6e:	2800                	c.fld	f8,16(x8)
 d70:	0a98                	c.addi4spn	x14,x2,336
 d72:	0000                	unimp
 d74:	00c4                	c.addi4spn	x9,x2,68
 d76:	0000                	unimp
 d78:	6929                	c.lui	x18,0xa
 d7a:	0100                	c.addi4spn	x8,x2,128
 d7c:	00005daf          	0x5daf
 d80:	0200                	c.addi4spn	x8,x2,256
 d82:	5491                	c.li	x9,-28
 d84:	a028                	c.fsd	f10,64(x8)
 d86:	000a                	0xa
 d88:	a000                	c.fsd	f8,0(x8)
 d8a:	0000                	unimp
 d8c:	2900                	c.fld	f8,16(x10)
 d8e:	006a                	0x6a
 d90:	b001                	c.j	590 <stats_print_dec+0x80>
 d92:	005d                	c.addi	x0,23
 d94:	0000                	unimp
 d96:	9102                	c.jalr	x2
 d98:	2950                	c.fld	f12,144(x10)
 d9a:	006e                	0x6e
 d9c:	b001                	c.j	59c <stats_print_dec+0x8c>
 d9e:	005d                	c.addi	x0,23
 da0:	0000                	unimp
 da2:	9102                	c.jalr	x2
 da4:	284c                	c.fld	f11,144(x8)
 da6:	0ab0                	c.addi4spn	x12,x2,344
 da8:	0000                	unimp
 daa:	006c                	c.addi4spn	x11,x2,12
 dac:	0000                	unimp
 dae:	6b29                	c.lui	x22,0xa
 db0:	0100                	c.addi4spn	x8,x2,128
 db2:	5db1                	c.li	x27,-20
 db4:	0000                	unimp
 db6:	0300                	c.addi4spn	x8,x2,384
 db8:	a491                	c.j	ffc <_data_lma_start+0x208>
 dba:	007f                	0x7f
 dbc:	0000                	unimp
 dbe:	0000                	unimp
 dc0:	8828                	0x8828
 dc2:	9800000b          	p.lb	x0,-1664(x0!) # fffff980 <pulp__FC+0xfffff981>
 dc6:	0000                	unimp
 dc8:	2900                	c.fld	f8,16(x10)
 dca:	0069                	c.addi	x0,26
 dcc:	c201                	c.beqz	x12,dcc <timeout_msg+0x9a>
 dce:	005d                	c.addi	x0,23
 dd0:	0000                	unimp
 dd2:	9102                	c.jalr	x2
 dd4:	0048                	c.addi4spn	x10,x2,4
 dd6:	0f00                	c.addi4spn	x8,x2,912
 dd8:	6404                	c.flw	f9,8(x8)
 dda:	0000                	unimp
 ddc:	2a00                	c.fld	f8,16(x12)
 dde:	05a6                	c.slli	x11,0x9
 de0:	0000                	unimp
 de2:	5001                	0x5001
 de4:	0738                	c.addi4spn	x14,x2,904
 de6:	0000                	unimp
 de8:	0118                	c.addi4spn	x14,x2,128
 dea:	0000                	unimp
 dec:	9c01                	0x9c01
 dee:	00074427          	0x74427
 df2:	3800                	c.fld	f8,48(x8)
 df4:	0000                	unimp
 df6:	c400                	c.sw	x8,8(x8)
 df8:	000a                	0xa
 dfa:	2900                	c.fld	f8,16(x10)
 dfc:	0069                	c.addi	x0,26
 dfe:	5201                	c.li	x4,-32
 e00:	005d                	c.addi	x0,23
 e02:	0000                	unimp
 e04:	9102                	c.jalr	x2
 e06:	006c                	c.addi4spn	x11,x2,12
 e08:	fc28                	c.fsw	f10,120(x8)
 e0a:	44000007          	0x44000007
 e0e:	0000                	unimp
 e10:	2900                	c.fld	f8,16(x10)
 e12:	0069                	c.addi	x0,26
 e14:	5d01                	c.li	x26,-32
 e16:	005d                	c.addi	x0,23
 e18:	0000                	unimp
 e1a:	9102                	c.jalr	x2
 e1c:	0068                	c.addi4spn	x10,x2,12
	...

Disassembly of section .debug_abbrev:

00000000 <.debug_abbrev>:
	j sw_irq_handler /* ecall, illegal insn and data prohibited */
   0:	1101                	c.addi	x2,-32
   2:	1000                	c.addi4spn	x8,x2,32
	j __no_irq_handler
   4:	5506                	c.lwsp	x10,96(x2)
   6:	0306                	c.slli	x6,0x1
	j __no_irq_handler
   8:	1b08                	c.addi4spn	x10,x2,432
   a:	2508                	c.fld	f10,8(x10)
	j __no_irq_handler
   c:	1308                	c.addi4spn	x10,x2,416
   e:	0005                	c.addi	x0,1
	j __no_irq_handler
  10:	0000                	unimp
  12:	1101                	c.addi	x2,-32
	j __no_irq_handler
  14:	2501                	c.jal	614 <stats_print_dec+0x104>
  16:	130e                	c.slli	x6,0x23
	j __no_irq_handler
  18:	1b0e030b          	p.lb	x6,432(x28!) # 1a1b0 <__bss_end+0x191a8>
	j timer_irq_handler
  1c:	110e                	c.slli	x2,0x23
  1e:	1201                	c.addi	x4,-32
	j __no_irq_handler
  20:	1006                	0x1006
  22:	02000017          	auipc	x0,0x2000
	j __no_irq_handler
  26:	0024                	c.addi4spn	x9,x2,8
	j __no_irq_handler
  28:	0b3e0b0b          	p.lb	x22,179(x28!)
	j __no_irq_handler
  2c:	00000e03          	lb	x28,0(x0) # 0 <__irq_base_vector>
	j __no_irq_handler
  30:	03001603          	lh	x12,48(x0) # 30 <vector_table_timer+0x14>
	j __no_irq_handler
  34:	3a0e                	c.fldsp	f20,224(x2)
  36:	490b3b0b          	0x490b3b0b
	j __no_irq_handler
  3a:	04000013          	addi	x0,x0,64
	j __no_irq_handler
  3e:	0024                	c.addi4spn	x9,x2,8
	j __no_irq_handler
  40:	0b3e0b0b          	p.lb	x22,179(x28!)
	j __no_irq_handler
  44:	00000803          	lb	x16,0(x0) # 0 <__irq_base_vector>
	j __no_irq_handler
  48:	2e05                	c.jal	378 <fast_exit+0x30>
  4a:	3f01                	c.jal	ffffff5a <pulp__FC+0xffffff5b>
	j __no_irq_handler
  4c:	0319                	c.addi	x6,6
  4e:	3a0e                	c.fldsp	f20,224(x2)
	j __no_irq_handler
  50:	270b3b0b          	0x270b3b0b
	j __no_irq_handler
  54:	1119                	c.addi	x2,-26
  56:	1201                	c.addi	x4,-32
	j __no_irq_handler
  58:	4006                	0x4006
  5a:	9718                	0x9718
	j __no_irq_handler
  5c:	1942                	c.slli	x18,0x30
  5e:	1301                	c.addi	x6,-32
	j __no_irq_handler
  60:	0000                	unimp
  62:	0506                	c.slli	x10,0x1
	j __no_irq_handler
  64:	0300                	c.addi4spn	x8,x2,384
  66:	3a08                	c.fld	f10,48(x12)
	j __no_irq_handler
  68:	490b3b0b          	0x490b3b0b
	j __no_irq_handler
  6c:	00180213          	addi	x4,x16,1 # fffe0001 <pulp__FC+0xfffe0002>
	j __no_irq_handler
  70:	0700                	c.addi4spn	x8,x2,896
  72:	0005                	c.addi	x0,1
	j __no_irq_handler
  74:	0b3a0e03          	lb	x28,179(x20) # 30b3 <__bss_end+0x20ab>
	j __no_irq_handler
  78:	13490b3b          	0x13490b3b
	j __no_irq_handler
  7c:	1802                	c.slli	x16,0x20
  7e:	0000                	unimp
	j __no_irq_handler
  80:	0b08                	c.addi4spn	x10,x2,400
  82:	1101                	c.addi	x2,-32
	j __no_irq_handler
  84:	1201                	c.addi	x4,-32
  86:	0006                	0x6
	j __no_irq_handler
  88:	0900                	c.addi4spn	x8,x2,144
  8a:	0034                	c.addi4spn	x13,x2,8
	j __no_irq_handler
  8c:	0b3a0803          	lb	x16,179(x20)
	j __no_irq_handler
  90:	13490b3b          	0x13490b3b
	j __no_irq_handler
  94:	1802                	c.slli	x16,0x20
  96:	0000                	unimp
	j __no_irq_handler
  98:	340a                	c.fldsp	f8,160(x2)
  9a:	0300                	c.addi4spn	x8,x2,384
	j __no_irq_handler
  9c:	3a0e                	c.fldsp	f20,224(x2)
  9e:	490b3b0b          	0x490b3b0b
	j __no_irq_handler
  a2:	00180213          	addi	x4,x16,1
	j __no_irq_handler
  a6:	0b00                	c.addi4spn	x8,x2,400
	j __no_irq_handler
  a8:	0101                	c.addi	x2,0
  aa:	1349                	c.addi	x6,-14
	j __no_irq_handler
  ac:	1301                	c.addi	x6,-32
  ae:	0000                	unimp
	j __no_irq_handler
  b0:	210c                	c.fld	f11,0(x10)
  b2:	4900                	c.lw	x8,16(x10)
	j __no_irq_handler
  b4:	000b2f13          	slt	x30,x22,0
	j __no_irq_handler
  b8:	0d00                	c.addi4spn	x8,x2,656
  ba:	0026                	0x26
	j __no_irq_handler
  bc:	1349                	c.addi	x6,-14
  be:	0000                	unimp
	j __no_irq_handler
  c0:	0f0e                	c.slli	x30,0x3
  c2:	0b00                	c.addi4spn	x8,x2,400
	j __no_irq_handler
  c4:	0013490b          	p.lbu	x18,1(x6!) # 1001 <_data_lma_start+0x20d>
	j __no_irq_handler
  c8:	0f00                	c.addi4spn	x8,x2,912
  ca:	012e                	c.slli	x2,0xb
	j __no_irq_handler
  cc:	0e03193f 0b3b0b3a 	0xb3b0b3a0e03193f
	j __no_irq_handler
  d4:	01111927          	0x1111927
	j __no_irq_handler
  d8:	0612                	c.slli	x12,0x4
  da:	1840                	c.addi4spn	x8,x2,52
	j __no_irq_handler
  dc:	00194297          	auipc	x5,0x194
	j __no_irq_handler
  e0:	0000                	unimp
  e2:	1101                	c.addi	x2,-32
	j __no_irq_handler
  e4:	2501                	c.jal	6e4 <stats+0x70>
  e6:	130e                	c.slli	x6,0x23
	j __no_irq_handler
  e8:	1b0e030b          	p.lb	x6,432(x28!)
	j __no_irq_handler
  ec:	110e                	c.slli	x2,0x23
  ee:	1201                	c.addi	x4,-32
	j __no_irq_handler
  f0:	1006                	0x1006
  f2:	02000017          	auipc	x0,0x2000
	j __no_irq_handler
  f6:	0024                	c.addi4spn	x9,x2,8
	j __no_irq_handler
  f8:	0b3e0b0b          	p.lb	x22,179(x28!)
	j __no_irq_handler
  fc:	00000e03          	lb	x28,0(x0) # 0 <__irq_base_vector>
 100:	0b002403          	lw	x8,176(x0) # b0 <vector_table_timer+0x94>
 104:	030b3e0b          	0x30b3e0b
 108:	0008                	c.addi4spn	x10,x2,0
 10a:	0400                	c.addi4spn	x8,x2,512
 10c:	012e                	c.slli	x2,0xb
 10e:	0e03193f 0b3b0b3a 	0xb3b0b3a0e03193f
 116:	01111927          	0x1111927
 11a:	0612                	c.slli	x12,0x4
 11c:	1840                	c.addi4spn	x8,x2,52
 11e:	4296                	c.lwsp	x5,68(x2)
 120:	0119                	c.addi	x2,6
 122:	05000013          	addi	x0,x0,80
 126:	0034                	c.addi4spn	x13,x2,8
 128:	0b3a0e03          	lb	x28,179(x20)
 12c:	13490b3b          	0x13490b3b
 130:	1802                	c.slli	x16,0x20
 132:	0000                	unimp
 134:	2e06                	c.fldsp	f28,64(x2)
 136:	3f01                	c.jal	46 <vector_table_timer+0x2a>
 138:	0319                	c.addi	x6,6
 13a:	3a0e                	c.fldsp	f20,224(x2)
 13c:	270b3b0b          	0x270b3b0b
 140:	1119                	c.addi	x2,-26
 142:	1201                	c.addi	x4,-32
 144:	4006                	0x4006
 146:	9718                	0x9718
 148:	1942                	c.slli	x18,0x30
 14a:	1301                	c.addi	x6,-32
 14c:	0000                	unimp
 14e:	03012e07          	flw	f28,48(x2)
 152:	3a0e                	c.fldsp	f20,224(x2)
 154:	270b3b0b          	0x270b3b0b
 158:	1119                	c.addi	x2,-26
 15a:	1201                	c.addi	x4,-32
 15c:	4006                	0x4006
 15e:	9618                	0x9618
 160:	1942                	c.slli	x18,0x30
 162:	1301                	c.addi	x6,-32
 164:	0000                	unimp
 166:	0508                	c.addi4spn	x10,x2,640
 168:	0300                	c.addi4spn	x8,x2,384
 16a:	3a08                	c.fld	f10,48(x12)
 16c:	490b3b0b          	0x490b3b0b
 170:	00180213          	addi	x4,x16,1
 174:	0900                	c.addi4spn	x8,x2,144
 176:	0005                	c.addi	x0,1
 178:	0b3a0e03          	lb	x28,179(x20)
 17c:	13490b3b          	0x13490b3b
	j start
 180:	1802                	c.slli	x16,0x20
 182:	0000                	unimp
	la a0, no_exception_handler_msg
 184:	340a                	c.fldsp	f8,160(x2)
 186:	0300                	c.addi4spn	x8,x2,384
 188:	3a08                	c.fld	f10,48(x12)
 18a:	490b3b0b          	0x490b3b0b
	jal ra, print_str
 18e:	00180213          	addi	x4,x16,1
	j __no_irq_handler
 192:	0b00                	c.addi4spn	x8,x2,400
	csrr t0, mcause
 194:	0101                	c.addi	x2,0
 196:	1349                	c.addi	x6,-14
	slli t0, t0, 1  /* shift off the high bit */
 198:	1301                	c.addi	x6,-32
 19a:	0000                	unimp
	srli t0, t0, 1
 19c:	210c                	c.fld	f11,0(x10)
 19e:	4900                	c.lw	x8,16(x10)
	li t1, 2
 1a0:	000b2f13          	slt	x30,x22,0
	beq t0, t1, handle_illegal_insn
 1a4:	0d00                	c.addi4spn	x8,x2,656
 1a6:	0b0b000f          	0xb0b000f
	li t1, 11
 1aa:	1349                	c.addi	x6,-14
	beq t0, t1, handle_ecall
 1ac:	0000                	unimp
 1ae:	0100                	c.addi4spn	x8,x2,128
	li t1, 3
 1b0:	0111                	c.addi	x2,4
 1b2:	0e25                	c.addi	x28,9
	beq t0, t1, handle_ebreak
 1b4:	0e030b13          	addi	x22,x6,224
	j handle_unknown
 1b8:	01110e1b          	0x1110e1b
	j fail_test
 1bc:	0612                	c.slli	x12,0x4
 1be:	1710                	c.addi4spn	x12,x2,928
	la a0, ebreak_msg
 1c0:	0000                	unimp
 1c2:	2402                	c.fldsp	f8,0(x2)
 1c4:	0b00                	c.addi4spn	x8,x2,400
 1c6:	030b3e0b          	0x30b3e0b
	jal ra, print_str
 1ca:	000e                	0xe
	j fail_test
 1cc:	0300                	c.addi4spn	x8,x2,384
 1ce:	0024                	c.addi4spn	x9,x2,8
	la a0, illegal_insn_msg
 1d0:	0b3e0b0b          	p.lb	x22,179(x28!)
 1d4:	00000803          	lb	x16,0(x0) # 0 <__irq_base_vector>
	jal ra, print_str
 1d8:	3504                	c.fld	f9,40(x10)
 1da:	4900                	c.lw	x8,16(x10)
	j fail_test
 1dc:	05000013          	addi	x0,x0,80
	la a0, unknown_msg
 1e0:	0026                	0x26
 1e2:	1349                	c.addi	x6,-14
 1e4:	0000                	unimp
 1e6:	1606                	c.slli	x12,0x21
	jal ra, print_str
 1e8:	0300                	c.addi4spn	x8,x2,384
 1ea:	3a0e                	c.fldsp	f20,224(x2)
	mv a0, t0
 1ec:	490b3b0b          	0x490b3b0b
	jal ra, print_chr
 1f0:	07000013          	addi	x0,x0,112
	j fail_test
 1f4:	0016                	0x16
 1f6:	0b3a0e03          	lb	x28,179(x20)
	li a0, 1
 1fa:	1349053b          	0x1349053b
	sw a0, test_results, t1 /* signal failure */
 1fe:	0000                	unimp
 200:	1708                	c.addi4spn	x10,x2,928
 202:	0b01                	c.addi	x22,0
	csrr a0, mepc
 204:	3b0b3a0b          	0x3b0b3a0b
	addi a0, a0, 4
 208:	0013010b          	p.lb	x2,1(x6!)
	csrw mepc, a0
 20c:	0900                	c.addi4spn	x8,x2,144
 20e:	000d                	c.addi	x0,3
	mret
 210:	0b3a0e03          	lb	x28,179(x20)
	wfi
 214:	13490b3b          	0x13490b3b
	la a0, timeout_msg
 218:	0000                	unimp
 21a:	010a                	c.slli	x2,0x2
 21c:	4901                	c.li	x18,0
 21e:	00130113          	addi	x2,x6,1
	jal ra, print_str
 222:	0b00                	c.addi4spn	x8,x2,400
	li a0, 1
 224:	0021                	c.addi	x0,8
 226:	1349                	c.addi	x6,-14
	sw a0, test_results, t1 /* signal failure */
 228:	00000b2f          	0xb2f
 22c:	130c                	c.addi4spn	x11,x2,416
 22e:	0b01                	c.addi	x22,0
	j fast_exit
 230:	3b0b3a0b          	0x3b0b3a0b
1:	auipc gp, %pcrel_hi(__global_pointer$)
 234:	0013010b          	p.lb	x2,1(x6!)
	addi  gp, gp, %pcrel_lo(1b)
 238:	0d00                	c.addi4spn	x8,x2,656
 23a:	000d                	c.addi	x0,3
	lui sp,(1024*1024)>>12 
 23c:	0b3a0e03          	lb	x28,179(x20)
    la a0, _data_lma_start  /* 源地址：Firmware 中的数据位置 */
 240:	13490b3b          	0x13490b3b
 244:	0b38                	c.addi4spn	x14,x2,408
 246:	0000                	unimp
    la a1, _data_start      /* 目的地址：RAM 中的起始位置 */
 248:	0f0e                	c.slli	x30,0x3
 24a:	0b00                	c.addi4spn	x8,x2,400
 24c:	0f00000b          	p.lb	x0,240(x0!) # f0 <vector_table_timer+0xd4>
    la a2, _data_end        /* 目的地址：RAM 中的结束位置 */
 250:	0b0b000f          	0xb0b000f
 254:	1349                	c.addi	x6,-14
 256:	0000                	unimp
    beq a0, a1, copy_data_done
 258:	1310                	c.addi4spn	x12,x2,416
 25a:	0301                	c.addi	x6,0
    bge a1, a2, copy_data_done /* 如果当前地址 >= 结束地址，完成 */
 25c:	0b0e                	c.slli	x22,0x3
 25e:	3b0b3a0b          	0x3b0b3a0b
    lw t0, 0(a0)               /* 从 ROM 读取一个字 */
 262:	0013010b          	p.lb	x2,1(x6!)
    sw t0, 0(a1)               /* 写入 RAM 一个字 */
 266:	1100                	c.addi4spn	x8,x2,160
    addi a0, a0, 4             /* 源指针 +4 */
 268:	000d                	c.addi	x0,3
 26a:	0b3a0803          	lb	x16,179(x20)
    addi a1, a1, 4             /* 目的指针 +4 */
 26e:	13490b3b          	0x13490b3b
    j copy_data_loop
 272:	0b38                	c.addi4spn	x14,x2,408
	jal ra, init_stats
 274:	0000                	unimp
 276:	1312                	c.slli	x6,0x24
	li t0, 0
 278:	0301                	c.addi	x6,0
 27a:	0b0e                	c.slli	x22,0x3
	la t1, __bss_start
 27c:	3a05                	c.jal	fffffbac <pulp__FC+0xfffffbad>
 27e:	010b3b0b          	0x10b3b0b
 282:	13000013          	addi	x0,x0,304
	la t2, __bss_end
 286:	000d                	c.addi	x0,3
 288:	0b3a0e03          	lb	x28,179(x20)
	bge t1, t2, loop_bss_done
 28c:	13490b3b          	0x13490b3b
	sw t0, 0(t1)
 290:	0538                	c.addi4spn	x14,x2,648
 292:	0000                	unimp
	addi t1, t1, 4
 294:	1514                	c.addi4spn	x13,x2,672
 296:	2700                	c.fld	f8,8(x14)
	j loop_bss
 298:	0019                	c.addi	x0,6
 29a:	1500                	c.addi4spn	x8,x2,672
	addi x1, zero, 0
 29c:	0115                	c.addi	x2,5
 29e:	13491927          	0x13491927
	addi x4, zero, 0
 2a2:	1301                	c.addi	x6,-32
	addi x5, zero, 0
 2a4:	0000                	unimp
 2a6:	0516                	c.slli	x10,0x5
	addi x6, zero, 0
 2a8:	4900                	c.lw	x8,16(x10)
 2aa:	17000013          	addi	x0,x0,368
	addi x7, zero, 0
 2ae:	0e030113          	addi	x2,x6,224
	addi x8, zero, 0
 2b2:	0b3a050b          	p.lb	x10,179(x20!)
	addi x9, zero, 0
 2b6:	1301053b          	0x1301053b
	addi x10, zero, 0
 2ba:	0000                	unimp
	addi x11, zero, 0
 2bc:	0d18                	c.addi4spn	x14,x2,656
 2be:	0300                	c.addi4spn	x8,x2,384
	addi x12, zero, 0
 2c0:	3a0e                	c.fldsp	f20,224(x2)
 2c2:	49053b0b          	0x49053b0b
	addi x13, zero, 0
 2c6:	000b3813          	sltiu	x16,x22,0
	addi x14, zero, 0
 2ca:	1900                	c.addi4spn	x8,x2,176
	addi x15, zero, 0
 2cc:	000d                	c.addi	x0,3
 2ce:	0b3a0e03          	lb	x28,179(x20)
	addi x16, zero, 0
 2d2:	1349053b          	0x1349053b
	addi x17, zero, 0
 2d6:	0538                	c.addi4spn	x14,x2,648
	addi x18, zero, 0
 2d8:	0000                	unimp
 2da:	131a                	c.slli	x6,0x26
	addi x19, zero, 0
 2dc:	0301                	c.addi	x6,0
 2de:	0b0e                	c.slli	x22,0x3
	addi x20, zero, 0
 2e0:	3b0b3a0b          	0x3b0b3a0b
	addi x21, zero, 0
 2e4:	0105                	c.addi	x2,1
 2e6:	1b000013          	addi	x0,x0,432
	addi x22, zero, 0
 2ea:	0b0b0113          	addi	x2,x22,176 # a0b0 <__bss_end+0x90a8>
	addi x23, zero, 0
 2ee:	0b3a                	c.slli	x22,0xe
	addi x24, zero, 0
 2f0:	1301053b          	0x1301053b
	addi x25, zero, 0
 2f4:	0000                	unimp
 2f6:	171c                	c.addi4spn	x15,x2,928
	addi x26, zero, 0
 2f8:	0b01                	c.addi	x22,0
 2fa:	3b0b3a0b          	0x3b0b3a0b
	addi x27, zero, 0
 2fe:	0105                	c.addi	x2,1
	addi x28, zero, 0
 300:	1d000013          	addi	x0,x0,464
	addi x29, zero, 0
 304:	000d                	c.addi	x0,3
 306:	0b3a0e03          	lb	x28,179(x20)
	addi x30, zero, 0
 30a:	1349053b          	0x1349053b
	addi x31, zero, 0
 30e:	0000                	unimp
	li      t0, 8
 310:	131e                	c.slli	x6,0x27
 312:	0300                	c.addi4spn	x8,x2,384
	csrrs   zero, mstatus, t0
 314:	3c0e                	c.fldsp	f24,224(x2)
 316:	0019                	c.addi	x0,6
	li a0, timer_irq_mask
 318:	1f00                	c.addi4spn	x8,x2,944
 31a:	0115                	c.addi	x2,5
	li a1, 0x8
 31c:	13011927          	0x13011927
	sw a1,0(a0)
 320:	0000                	unimp
 322:	3420                	c.fld	f8,104(x8)
	TEST(app)
 324:	0300                	c.addi4spn	x8,x2,384
 326:	3a0e                	c.fldsp	f20,224(x2)
 328:	49053b0b          	0x49053b0b
 32c:	3c193f13          	sltiu	x30,x18,961
 330:	0019                	c.addi	x0,6
 332:	2100                	c.fld	f8,0(x10)
 334:	0034                	c.addi4spn	x13,x2,8
 336:	0b3a0e03          	lb	x28,179(x20)
 33a:	13490b3b          	0x13490b3b
	lui gp, %hi(0xdeadbeef)
 33e:	193c193f 21220000 	0x21220000193c193f
	addi tp, gp, 0
 346:	4900                	c.lw	x8,16(x10)
	lui a0,print_port>>12
 348:	00052f13          	slt	x30,x10,0
	addi a1,zero,'D'
 34c:	2300                	c.fld	f8,0(x14)
 34e:	0034                	c.addi4spn	x13,x2,8
	addi a2,zero,'O'
 350:	0b3a0e03          	lb	x28,179(x20)
	addi a3,zero,'N'
 354:	13490b3b          	0x13490b3b
	addi a4,zero,'E'
 358:	1802193f 34240000 	0x342400001802193f
	sw a1,0(a0)
 360:	0300                	c.addi4spn	x8,x2,384
 362:	3a08                	c.fld	f10,48(x12)
	sw a2,0(a0)
 364:	490b3b0b          	0x490b3b0b
	sw a3,0(a0)
 368:	02193f13          	sltiu	x30,x18,33
	sw a4,0(a0)
 36c:	0018                	c.addi4spn	x14,x2,0
 36e:	2500                	c.fld	f8,8(x10)
	sw a5,0(a0)
 370:	012e                	c.slli	x2,0xb
 372:	0803193f 0b3b0b3a 	0xb3b0b3a0803193f
	lw a1, test_results
 37a:	1349                	c.addi	x6,-14
 37c:	0111                	c.addi	x2,4
 37e:	0612                	c.slli	x12,0x4
	sw a1,0(a0)
 380:	1840                	c.addi4spn	x8,x2,52
 382:	4296                	c.lwsp	x5,68(x2)
	wfi  /* we are done */
 384:	0119                	c.addi	x2,6
 386:	26000013          	addi	x0,x0,608
{
 38a:	0034                	c.addi4spn	x13,x2,8
 38c:	0b3a0e03          	lb	x28,179(x20)
 390:	13490b3b          	0x13490b3b
 394:	1802                	c.slli	x16,0x20
 396:	0000                	unimp
 398:	11010b27          	0x11010b27
    *((volatile uint32_t *)OUTPORT) = ch;
 39c:	1201                	c.addi	x4,-32
 39e:	0106                	c.slli	x2,0x1
 3a0:	28000013          	addi	x0,x0,640
 3a4:	0111010b          	p.lb	x2,17(x2!)
}
 3a8:	0612                	c.slli	x12,0x4
 3aa:	0000                	unimp
 3ac:	3429                	c.jal	fffffdb6 <pulp__FC+0xfffffdb7>
 3ae:	0300                	c.addi4spn	x8,x2,384
 3b0:	3a08                	c.fld	f10,48(x12)
 3b2:	490b3b0b          	0x490b3b0b
 3b6:	00180213          	addi	x4,x16,1
{
 3ba:	2a00                	c.fld	f8,16(x12)
 3bc:	012e                	c.slli	x2,0xb
 3be:	0e03193f 0b3b0b3a 	0xb3b0b3a0e03193f
 3c6:	0111                	c.addi	x2,4
    while (*p != 0)
 3c8:	0612                	c.slli	x12,0x4
 3ca:	1840                	c.addi4spn	x8,x2,52
        *((volatile uint32_t *)OUTPORT) = *(p++);
 3cc:	00194297          	auipc	x5,0x194
	...

Disassembly of section .debug_aranges:

00000000 <.debug_aranges>:
	j sw_irq_handler /* ecall, illegal insn and data prohibited */
   0:	0034                	c.addi4spn	x13,x2,8
   2:	0000                	unimp
	j __no_irq_handler
   4:	0002                	0x2
   6:	0000                	unimp
	j __no_irq_handler
   8:	0000                	unimp
   a:	0004                	c.addi4spn	x9,x2,0
	...
	j __no_irq_handler
  14:	0100                	c.addi4spn	x8,x2,128
  16:	0000                	unimp
	j __no_irq_handler
  18:	0c38                	c.addi4spn	x14,x2,536
  1a:	0000                	unimp
	j timer_irq_handler
  1c:	0010                	c.addi4spn	x12,x2,0
  1e:	0000                	unimp
	j __no_irq_handler
  20:	0180                	c.addi4spn	x8,x2,192
  22:	0000                	unimp
	j __no_irq_handler
  24:	0004                	c.addi4spn	x9,x2,0
  26:	0000                	unimp
	j __no_irq_handler
  28:	0184                	c.addi4spn	x9,x2,192
  2a:	0000                	unimp
	j __no_irq_handler
  2c:	0204                	c.addi4spn	x9,x2,256
	...
	j __no_irq_handler
  36:	0000                	unimp
	j __no_irq_handler
  38:	001c                	c.addi4spn	x15,x2,0
  3a:	0000                	unimp
	j __no_irq_handler
  3c:	0002                	0x2
  3e:	0082                	c.slli	x1,0x0
	j __no_irq_handler
  40:	0000                	unimp
  42:	0004                	c.addi4spn	x9,x2,0
	j __no_irq_handler
  44:	0000                	unimp
  46:	0000                	unimp
	j __no_irq_handler
  48:	0388                	c.addi4spn	x10,x2,448
  4a:	0000                	unimp
	j __no_irq_handler
  4c:	0188                	c.addi4spn	x10,x2,192
	...
	j __no_irq_handler
  56:	0000                	unimp
	j __no_irq_handler
  58:	001c                	c.addi4spn	x15,x2,0
  5a:	0000                	unimp
	j __no_irq_handler
  5c:	0002                	0x2
  5e:	000001f3          	0x1f3
	j __no_irq_handler
  62:	0004                	c.addi4spn	x9,x2,0
	j __no_irq_handler
  64:	0000                	unimp
  66:	0000                	unimp
	j __no_irq_handler
  68:	0510                	c.addi4spn	x12,x2,640
  6a:	0000                	unimp
	j __no_irq_handler
  6c:	0228                	c.addi4spn	x10,x2,264
	...
	j __no_irq_handler
  76:	0000                	unimp
	j __no_irq_handler
  78:	001c                	c.addi4spn	x15,x2,0
  7a:	0000                	unimp
	j __no_irq_handler
  7c:	0002                	0x2
  7e:	0344                	c.addi4spn	x9,x2,388
	j __no_irq_handler
  80:	0000                	unimp
  82:	0004                	c.addi4spn	x9,x2,0
	j __no_irq_handler
  84:	0000                	unimp
  86:	0000                	unimp
	j __no_irq_handler
  88:	0738                	c.addi4spn	x14,x2,904
  8a:	0000                	unimp
	j __no_irq_handler
  8c:	0500                	c.addi4spn	x8,x2,640
	...

Disassembly of section .debug_ranges:

00000000 <.debug_ranges>:
	j sw_irq_handler /* ecall, illegal insn and data prohibited */
   0:	ffff                	0xffff
   2:	ffff                	0xffff
	...
	j __no_irq_handler
   c:	0100                	c.addi4spn	x8,x2,128
   e:	0000                	unimp
	j __no_irq_handler
  10:	0c38                	c.addi4spn	x14,x2,536
  12:	0000                	unimp
	j __no_irq_handler
  14:	0c48                	c.addi4spn	x10,x2,532
  16:	0000                	unimp
	j __no_irq_handler
  18:	0180                	c.addi4spn	x8,x2,192
  1a:	0000                	unimp
	j timer_irq_handler
  1c:	0184                	c.addi4spn	x9,x2,192
  1e:	0000                	unimp
	j __no_irq_handler
  20:	0184                	c.addi4spn	x9,x2,192
  22:	0000                	unimp
	j __no_irq_handler
  24:	0388                	c.addi4spn	x10,x2,448
	...

Disassembly of section .debug_frame:

00000000 <.debug_frame>:
	j sw_irq_handler /* ecall, illegal insn and data prohibited */
   0:	000c                	c.addi4spn	x11,x2,0
   2:	0000                	unimp
	j __no_irq_handler
   4:	ffff                	0xffff
   6:	ffff                	0xffff
	j __no_irq_handler
   8:	7c010003          	lb	x0,1984(x2)
	j __no_irq_handler
   c:	0c01                	c.addi	x24,0
   e:	0002                	0x2
	j __no_irq_handler
  10:	0030                	c.addi4spn	x12,x2,8
  12:	0000                	unimp
	j __no_irq_handler
  14:	0000                	unimp
  16:	0000                	unimp
	j __no_irq_handler
  18:	0388                	c.addi4spn	x10,x2,448
  1a:	0000                	unimp
	j timer_irq_handler
  1c:	0030                	c.addi4spn	x12,x2,8
  1e:	0000                	unimp
	j __no_irq_handler
  20:	0404                	c.addi4spn	x9,x2,512
  22:	0000                	unimp
	j __no_irq_handler
  24:	0e00                	c.addi4spn	x8,x2,784
  26:	0420                	c.addi4spn	x8,x2,520
	j __no_irq_handler
  28:	0004                	c.addi4spn	x9,x2,0
  2a:	0000                	unimp
	j __no_irq_handler
  2c:	0188                	c.addi4spn	x10,x2,192
  2e:	0404                	c.addi4spn	x9,x2,512
	j __no_irq_handler
  30:	0000                	unimp
  32:	0c00                	c.addi4spn	x8,x2,528
	j __no_irq_handler
  34:	0008                	c.addi4spn	x10,x2,0
  36:	1c04                	c.addi4spn	x9,x2,560
	j __no_irq_handler
  38:	0000                	unimp
  3a:	c800                	c.sw	x8,16(x8)
	j __no_irq_handler
  3c:	0404                	c.addi4spn	x9,x2,512
  3e:	0000                	unimp
	j __no_irq_handler
  40:	0d00                	c.addi4spn	x8,x2,656
  42:	0002                	0x2
	j __no_irq_handler
  44:	0030                	c.addi4spn	x12,x2,8
  46:	0000                	unimp
	j __no_irq_handler
  48:	0000                	unimp
  4a:	0000                	unimp
	j __no_irq_handler
  4c:	03b8                	c.addi4spn	x14,x2,456
  4e:	0000                	unimp
	j __no_irq_handler
  50:	0048                	c.addi4spn	x10,x2,4
  52:	0000                	unimp
	j __no_irq_handler
  54:	0404                	c.addi4spn	x9,x2,512
  56:	0000                	unimp
	j __no_irq_handler
  58:	0e00                	c.addi4spn	x8,x2,784
  5a:	0420                	c.addi4spn	x8,x2,520
	j __no_irq_handler
  5c:	0004                	c.addi4spn	x9,x2,0
  5e:	0000                	unimp
	j __no_irq_handler
  60:	0188                	c.addi4spn	x10,x2,192
  62:	0404                	c.addi4spn	x9,x2,512
	j __no_irq_handler
  64:	0000                	unimp
  66:	0c00                	c.addi4spn	x8,x2,528
	j __no_irq_handler
  68:	0008                	c.addi4spn	x10,x2,0
  6a:	3404                	c.fld	f9,40(x8)
	j __no_irq_handler
  6c:	0000                	unimp
  6e:	c800                	c.sw	x8,16(x8)
	j __no_irq_handler
  70:	0404                	c.addi4spn	x9,x2,512
  72:	0000                	unimp
	j __no_irq_handler
  74:	0d00                	c.addi4spn	x8,x2,656
  76:	0002                	0x2
	j __no_irq_handler
  78:	0030                	c.addi4spn	x12,x2,8
  7a:	0000                	unimp
	j __no_irq_handler
  7c:	0000                	unimp
  7e:	0000                	unimp
	j __no_irq_handler
  80:	0400                	c.addi4spn	x8,x2,512
  82:	0000                	unimp
	j __no_irq_handler
  84:	00a0                	c.addi4spn	x8,x2,72
  86:	0000                	unimp
	j __no_irq_handler
  88:	0404                	c.addi4spn	x9,x2,512
  8a:	0000                	unimp
	j __no_irq_handler
  8c:	0e00                	c.addi4spn	x8,x2,784
  8e:	0430                	c.addi4spn	x12,x2,520
	j __no_irq_handler
  90:	0004                	c.addi4spn	x9,x2,0
  92:	0000                	unimp
	j __no_irq_handler
  94:	0188                	c.addi4spn	x10,x2,192
  96:	0404                	c.addi4spn	x9,x2,512
	j __no_irq_handler
  98:	0000                	unimp
  9a:	0c00                	c.addi4spn	x8,x2,528
	j __no_irq_handler
  9c:	0008                	c.addi4spn	x10,x2,0
  9e:	8c04                	0x8c04
	j __no_irq_handler
  a0:	0000                	unimp
  a2:	c800                	c.sw	x8,16(x8)
	j __no_irq_handler
  a4:	0404                	c.addi4spn	x9,x2,512
  a6:	0000                	unimp
	j __no_irq_handler
  a8:	0d00                	c.addi4spn	x8,x2,656
  aa:	0002                	0x2
	j __no_irq_handler
  ac:	0030                	c.addi4spn	x12,x2,8
  ae:	0000                	unimp
	j __no_irq_handler
  b0:	0000                	unimp
  b2:	0000                	unimp
	j __no_irq_handler
  b4:	04a0                	c.addi4spn	x8,x2,584
  b6:	0000                	unimp
	j __no_irq_handler
  b8:	0070                	c.addi4spn	x12,x2,12
  ba:	0000                	unimp
	j __no_irq_handler
  bc:	0404                	c.addi4spn	x9,x2,512
  be:	0000                	unimp
	j __no_irq_handler
  c0:	0e00                	c.addi4spn	x8,x2,784
  c2:	0430                	c.addi4spn	x12,x2,520
	j __no_irq_handler
  c4:	0004                	c.addi4spn	x9,x2,0
  c6:	0000                	unimp
	j __no_irq_handler
  c8:	0188                	c.addi4spn	x10,x2,192
  ca:	0404                	c.addi4spn	x9,x2,512
	j __no_irq_handler
  cc:	0000                	unimp
  ce:	0c00                	c.addi4spn	x8,x2,528
	j __no_irq_handler
  d0:	0008                	c.addi4spn	x10,x2,0
  d2:	5c04                	c.lw	x9,56(x8)
	j __no_irq_handler
  d4:	0000                	unimp
  d6:	c800                	c.sw	x8,16(x8)
	j __no_irq_handler
  d8:	0404                	c.addi4spn	x9,x2,512
  da:	0000                	unimp
	j __no_irq_handler
  dc:	0d00                	c.addi4spn	x8,x2,656
  de:	0002                	0x2
	j __no_irq_handler
  e0:	000c                	c.addi4spn	x11,x2,0
  e2:	0000                	unimp
	j __no_irq_handler
  e4:	ffff                	0xffff
  e6:	ffff                	0xffff
	j __no_irq_handler
  e8:	7c010003          	lb	x0,1984(x2)
	j __no_irq_handler
  ec:	0c01                	c.addi	x24,0
  ee:	0002                	0x2
	j __no_irq_handler
  f0:	0038                	c.addi4spn	x14,x2,8
  f2:	0000                	unimp
	j __no_irq_handler
  f4:	00e0                	c.addi4spn	x8,x2,76
  f6:	0000                	unimp
	j __no_irq_handler
  f8:	0510                	c.addi4spn	x12,x2,640
  fa:	0000                	unimp
	j __no_irq_handler
  fc:	0128                	c.addi4spn	x10,x2,136
  fe:	0000                	unimp
 100:	0404                	c.addi4spn	x9,x2,512
 102:	0000                	unimp
 104:	0e00                	c.addi4spn	x8,x2,784
 106:	0450                	c.addi4spn	x12,x2,516
 108:	0008                	c.addi4spn	x10,x2,0
 10a:	0000                	unimp
 10c:	0181                	c.addi	x3,0
 10e:	0288                	c.addi4spn	x10,x2,320
 110:	0404                	c.addi4spn	x9,x2,512
 112:	0000                	unimp
 114:	0c00                	c.addi4spn	x8,x2,528
 116:	0008                	c.addi4spn	x10,x2,0
 118:	0c04                	c.addi4spn	x9,x2,528
 11a:	0001                	c.nop
 11c:	c100                	c.sw	x8,0(x10)
 11e:	0404                	c.addi4spn	x9,x2,512
 120:	0000                	unimp
 122:	c800                	c.sw	x8,16(x8)
 124:	0404                	c.addi4spn	x9,x2,512
 126:	0000                	unimp
 128:	0d00                	c.addi4spn	x8,x2,656
 12a:	0002                	0x2
 12c:	0030                	c.addi4spn	x12,x2,8
 12e:	0000                	unimp
 130:	00e0                	c.addi4spn	x8,x2,76
 132:	0000                	unimp
 134:	0638                	c.addi4spn	x14,x2,776
 136:	0000                	unimp
 138:	003c                	c.addi4spn	x15,x2,8
 13a:	0000                	unimp
 13c:	0404                	c.addi4spn	x9,x2,512
 13e:	0000                	unimp
 140:	0e00                	c.addi4spn	x8,x2,784
 142:	0420                	c.addi4spn	x8,x2,520
 144:	0004                	c.addi4spn	x9,x2,0
 146:	0000                	unimp
 148:	0188                	c.addi4spn	x10,x2,192
 14a:	0404                	c.addi4spn	x9,x2,512
 14c:	0000                	unimp
 14e:	0c00                	c.addi4spn	x8,x2,528
 150:	0008                	c.addi4spn	x10,x2,0
 152:	2804                	c.fld	f9,16(x8)
 154:	0000                	unimp
 156:	c800                	c.sw	x8,16(x8)
 158:	0404                	c.addi4spn	x9,x2,512
 15a:	0000                	unimp
 15c:	0d00                	c.addi4spn	x8,x2,656
 15e:	0002                	0x2
 160:	0038                	c.addi4spn	x14,x2,8
 162:	0000                	unimp
 164:	00e0                	c.addi4spn	x8,x2,76
 166:	0000                	unimp
 168:	0674                	c.addi4spn	x13,x2,780
 16a:	0000                	unimp
 16c:	00c4                	c.addi4spn	x9,x2,68
 16e:	0000                	unimp
 170:	0404                	c.addi4spn	x9,x2,512
 172:	0000                	unimp
 174:	0e00                	c.addi4spn	x8,x2,784
 176:	0420                	c.addi4spn	x8,x2,520
 178:	0008                	c.addi4spn	x10,x2,0
 17a:	0000                	unimp
 17c:	0181                	c.addi	x3,0
 17e:	0288                	c.addi4spn	x10,x2,320
	j start
 180:	0404                	c.addi4spn	x9,x2,512
 182:	0000                	unimp
	la a0, no_exception_handler_msg
 184:	0c00                	c.addi4spn	x8,x2,528
 186:	0008                	c.addi4spn	x10,x2,0
 188:	a804                	c.fsd	f9,16(x8)
 18a:	0000                	unimp
	jal ra, print_str
 18c:	c100                	c.sw	x8,0(x10)
 18e:	0404                	c.addi4spn	x9,x2,512
	j __no_irq_handler
 190:	0000                	unimp
 192:	c800                	c.sw	x8,16(x8)
	csrr t0, mcause
 194:	0404                	c.addi4spn	x9,x2,512
 196:	0000                	unimp
	slli t0, t0, 1  /* shift off the high bit */
 198:	0d00                	c.addi4spn	x8,x2,656
 19a:	0002                	0x2
	srli t0, t0, 1
 19c:	000c                	c.addi4spn	x11,x2,0
 19e:	0000                	unimp
	li t1, 2
 1a0:	ffff                	0xffff
 1a2:	ffff                	0xffff
	beq t0, t1, handle_illegal_insn
 1a4:	7c010003          	lb	x0,1984(x2)
	li t1, 11
 1a8:	0c01                	c.addi	x24,0
 1aa:	0002                	0x2
	beq t0, t1, handle_ecall
 1ac:	0030                	c.addi4spn	x12,x2,8
 1ae:	0000                	unimp
	li t1, 3
 1b0:	019c                	c.addi4spn	x15,x2,192
 1b2:	0000                	unimp
	beq t0, t1, handle_ebreak
 1b4:	0738                	c.addi4spn	x14,x2,904
 1b6:	0000                	unimp
	j handle_unknown
 1b8:	0118                	c.addi4spn	x14,x2,128
 1ba:	0000                	unimp
	j fail_test
 1bc:	0404                	c.addi4spn	x9,x2,512
 1be:	0000                	unimp
	la a0, ebreak_msg
 1c0:	0e00                	c.addi4spn	x8,x2,784
 1c2:	0420                	c.addi4spn	x8,x2,520
 1c4:	0004                	c.addi4spn	x9,x2,0
 1c6:	0000                	unimp
	jal ra, print_str
 1c8:	0188                	c.addi4spn	x10,x2,192
 1ca:	0404                	c.addi4spn	x9,x2,512
	j fail_test
 1cc:	0000                	unimp
 1ce:	0c00                	c.addi4spn	x8,x2,528
	la a0, illegal_insn_msg
 1d0:	0008                	c.addi4spn	x10,x2,0
 1d2:	0404                	c.addi4spn	x9,x2,512
 1d4:	0001                	c.nop
 1d6:	c800                	c.sw	x8,16(x8)
	jal ra, print_str
 1d8:	0404                	c.addi4spn	x9,x2,512
 1da:	0000                	unimp
	j fail_test
 1dc:	0d00                	c.addi4spn	x8,x2,656
 1de:	0002                	0x2
	la a0, unknown_msg
 1e0:	0038                	c.addi4spn	x14,x2,8
 1e2:	0000                	unimp
 1e4:	019c                	c.addi4spn	x15,x2,192
 1e6:	0000                	unimp
	jal ra, print_str
 1e8:	0850                	c.addi4spn	x12,x2,20
 1ea:	0000                	unimp
	mv a0, t0
 1ec:	03e8                	c.addi4spn	x10,x2,460
 1ee:	0000                	unimp
	jal ra, print_chr
 1f0:	0404                	c.addi4spn	x9,x2,512
 1f2:	0000                	unimp
	j fail_test
 1f4:	0e00                	c.addi4spn	x8,x2,784
 1f6:	0470                	c.addi4spn	x12,x2,524
	li a0, 1
 1f8:	0008                	c.addi4spn	x10,x2,0
 1fa:	0000                	unimp
	sw a0, test_results, t1 /* signal failure */
 1fc:	0181                	c.addi	x3,0
 1fe:	0288                	c.addi4spn	x10,x2,320
 200:	0404                	c.addi4spn	x9,x2,512
 202:	0000                	unimp
	csrr a0, mepc
 204:	0c00                	c.addi4spn	x8,x2,528
 206:	0008                	c.addi4spn	x10,x2,0
	addi a0, a0, 4
 208:	cc04                	c.sw	x9,24(x8)
 20a:	c1000003          	lb	x0,-1008(x0) # fffffc10 <pulp__FC+0xfffffc11>
	csrw mepc, a0
 20e:	0404                	c.addi4spn	x9,x2,512
	mret
 210:	0000                	unimp
 212:	c800                	c.sw	x8,16(x8)
	wfi
 214:	0404                	c.addi4spn	x9,x2,512
 216:	0000                	unimp
	la a0, timeout_msg
 218:	0d00                	c.addi4spn	x8,x2,656
 21a:	0002                	0x2

Disassembly of section .debug_str:

00000000 <.debug_str>:
	j sw_irq_handler /* ecall, illegal insn and data prohibited */
   0:	20554e47          	fmsub.s	f28,f10,f5,f4,rmm
	j __no_irq_handler
   4:	20313143          	fmadd.s	f2,f2,f3,f4,rup
	j __no_irq_handler
   8:	2e312e37          	lui	x28,0x2e312
	j __no_irq_handler
   c:	2031                	c.jal	18 <_data_end+0x10>
   e:	3032                	c.fldsp	f0,296(x2)
	j __no_irq_handler
  10:	3731                	c.jal	ffffff1c <pulp__FC+0xffffff1d>
  12:	3530                	c.fld	f12,104(x10)
	j __no_irq_handler
  14:	3930                	c.fld	f12,112(x10)
  16:	2d20                	c.fld	f8,88(x10)
	j __no_irq_handler
  18:	616d                	c.addi16sp	x2,240
  1a:	6372                	c.flwsp	f6,28(x2)
	j timer_irq_handler
  1c:	3d68                	c.fld	f10,248(x10)
  1e:	7672                	c.flwsp	f12,60(x2)
	j __no_irq_handler
  20:	20673233          	0x20673233
	j __no_irq_handler
  24:	6d2d                	c.lui	x26,0xb
  26:	6261                	c.lui	x4,0x18
	j __no_irq_handler
  28:	3d69                	c.jal	fffffec2 <pulp__FC+0xfffffec3>
  2a:	6c69                	c.lui	x24,0x1a
	j __no_irq_handler
  2c:	3370                	c.fld	f12,224(x14)
  2e:	6432                	c.flwsp	f8,12(x2)
	j __no_irq_handler
  30:	2d20                	c.fld	f8,88(x10)
  32:	72700067          	jalr	x0,1831(x0) # 727 <stats+0xb3>
	j __no_irq_handler
  36:	6e69                	c.lui	x28,0x1a
	j __no_irq_handler
  38:	5f74                	c.lw	x13,124(x14)
  3a:	00726863          	bltu	x4,x7,4a <vector_table_timer+0x2e>
	j __no_irq_handler
  3e:	6d6f682f          	0x6d6f682f
	j __no_irq_handler
  42:	2f65                	c.jal	7fa <init_data+0xc2>
	j __no_irq_handler
  44:	6a6e7573          	csrrci	x10,0x6a6,28
	j __no_irq_handler
  48:	6169                	c.addi16sp	x2,208
  4a:	6978                	c.flw	f14,84(x10)
	j __no_irq_handler
  4c:	7267632f          	0x7267632f
	j __no_irq_handler
  50:	6d61                	c.lui	x26,0x18
  52:	5f65                	c.li	x30,-7
	j __no_irq_handler
  54:	7270                	c.flw	f12,100(x12)
  56:	63656a6f          	jal	x20,5668c <__bss_end+0x55684>
	j __no_irq_handler
  5a:	2f74                	c.fld	f13,216(x14)
	j __no_irq_handler
  5c:	61726763          	bltu	x4,x23,66a <init_stats+0x32>
	j __no_irq_handler
  60:	6d2d                	c.lui	x26,0xb
  62:	2d65                	c.jal	71a <stats+0xa6>
	j __no_irq_handler
  64:	6572                	c.flwsp	f10,28(x2)
  66:	656c                	c.flw	f11,76(x10)
	j __no_irq_handler
  68:	7361                	c.lui	x6,0xffff8
  6a:	2d65                	c.jal	722 <stats+0xae>
	j __no_irq_handler
  6c:	2e32                	c.fldsp	f28,264(x2)
  6e:	2e30                	c.fld	f12,88(x12)
	j __no_irq_handler
  70:	2f32                	c.fldsp	f30,264(x2)
  72:	6562                	c.flwsp	f10,24(x2)
	j __no_irq_handler
  74:	636e                	c.flwsp	f6,216(x2)
  76:	6d68                	c.flw	f10,92(x10)
	j __no_irq_handler
  78:	7261                	c.lui	x4,0xffff8
  7a:	752f736b          	0x752f736b
	j __no_irq_handler
  7e:	62726573          	csrrsi	x10,0x627,4
	j __no_irq_handler
  82:	6e65                	c.lui	x28,0x19
	j __no_irq_handler
  84:	662f6863          	bltu	x30,x2,6f4 <stats+0x80>
	j __no_irq_handler
  88:	7466                	c.flwsp	f8,120(x2)
  8a:	7500                	c.flw	f8,40(x10)
	j __no_irq_handler
  8c:	736e                	c.flwsp	f6,248(x2)
  8e:	6769                	c.lui	x14,0x1a
	j __no_irq_handler
  90:	656e                	c.flwsp	f10,216(x2)
  92:	2064                	c.fld	f9,192(x8)
	j __no_irq_handler
  94:	72616863          	bltu	x2,x6,7c4 <init_data+0x8c>
	j __no_irq_handler
  98:	7300                	c.flw	f8,32(x14)
  9a:	6f68                	c.flw	f10,92(x14)
	j __no_irq_handler
  9c:	7472                	c.flwsp	f8,60(x2)
  9e:	7520                	c.flw	f8,104(x10)
	j __no_irq_handler
  a0:	736e                	c.flwsp	f6,248(x2)
  a2:	6769                	c.lui	x14,0x1a
	j __no_irq_handler
  a4:	656e                	c.flwsp	f10,216(x2)
  a6:	2064                	c.fld	f9,192(x8)
	j __no_irq_handler
  a8:	6e69                	c.lui	x28,0x1a
  aa:	0074                	c.addi4spn	x13,x2,12
	j __no_irq_handler
  ac:	7270                	c.flw	f12,100(x12)
  ae:	6e69                	c.lui	x28,0x1a
	j __no_irq_handler
  b0:	5f74                	c.lw	x13,124(x14)
  b2:	6568                	c.flw	f10,76(x10)
	j __no_irq_handler
  b4:	0078                	c.addi4spn	x14,x2,12
  b6:	7270                	c.flw	f12,100(x12)
	j __no_irq_handler
  b8:	6e69                	c.lui	x28,0x1a
  ba:	5f74                	c.lw	x13,124(x14)
	j __no_irq_handler
  bc:	00727473          	csrrci	x8,0x7,4
	j __no_irq_handler
  c0:	5f5f 6975 746e      	0x746e69755f5f
	j __no_irq_handler
  c6:	745f3233          	0x745f3233
	j __no_irq_handler
  ca:	6c00                	c.flw	f8,24(x8)
	j __no_irq_handler
  cc:	20676e6f          	jal	x28,762d2 <__bss_end+0x752ca>
	j __no_irq_handler
  d0:	6f6c                	c.flw	f11,92(x14)
  d2:	676e                	c.flwsp	f14,216(x2)
	j __no_irq_handler
  d4:	7520                	c.flw	f8,104(x10)
  d6:	736e                	c.flwsp	f6,248(x2)
	j __no_irq_handler
  d8:	6769                	c.lui	x14,0x1a
  da:	656e                	c.flwsp	f10,216(x2)
	j __no_irq_handler
  dc:	2064                	c.fld	f9,192(x8)
  de:	6e69                	c.lui	x28,0x1a
	j __no_irq_handler
  e0:	0074                	c.addi4spn	x13,x2,12
  e2:	6966                	c.flwsp	f18,88(x2)
	j __no_irq_handler
  e4:	6d72                	c.flwsp	f26,28(x2)
  e6:	65726177          	0x65726177
	j __no_irq_handler
  ea:	6972702f          	0x6972702f
	j __no_irq_handler
  ee:	746e                	c.flwsp	f8,248(x2)
	j __no_irq_handler
  f0:	632e                	c.flwsp	f6,200(x2)
  f2:	6c00                	c.flw	f8,24(x8)
	j __no_irq_handler
  f4:	20676e6f          	jal	x28,762fa <__bss_end+0x752f2>
	j __no_irq_handler
  f8:	6f6c                	c.flw	f11,92(x14)
  fa:	676e                	c.flwsp	f14,216(x2)
	j __no_irq_handler
  fc:	6920                	c.flw	f8,80(x10)
  fe:	746e                	c.flwsp	f8,248(x2)
 100:	6400                	c.flw	f8,8(x8)
 102:	6769                	c.lui	x14,0x1a
 104:	7469                	c.lui	x8,0xffffa
 106:	68730073          	0x68730073
 10a:	2074726f          	jal	x4,47b10 <__bss_end+0x46b08>
 10e:	6e69                	c.lui	x28,0x1a
 110:	0074                	c.addi4spn	x13,x2,12
 112:	7562                	c.flwsp	f10,56(x2)
 114:	6666                	c.flwsp	f12,88(x2)
 116:	7265                	c.lui	x4,0xffff9
 118:	6900                	c.flw	f8,16(x10)
 11a:	696e                	c.flwsp	f18,216(x2)
 11c:	5f74                	c.lw	x13,124(x14)
 11e:	74617473          	csrrci	x8,0x746,2
 122:	657a0073          	0x657a0073
 126:	6f72                	c.flwsp	f30,28(x2)
 128:	705f 6461 6600      	0x66006461705f
 12e:	7269                	c.lui	x4,0xffffa
 130:	776d                	c.lui	x14,0xffffb
 132:	7261                	c.lui	x4,0xffff8
 134:	2f65                	c.jal	8ec <app+0x9c>
 136:	74617473          	csrrci	x8,0x746,2
 13a:	00632e73          	csrrs	x28,0x6,x6
 13e:	756e                	c.flwsp	f10,248(x2)
 140:	5f6d                	c.li	x30,-5
 142:	6c637963          	bgeu	x6,x6,814 <twiddle_table+0xc>
 146:	7365                	c.lui	x6,0xffff9
 148:	7000                	c.flw	f8,32(x8)
 14a:	00726563          	bltu	x4,x7,154 <vector_table_timer+0x138>
 14e:	756e                	c.flwsp	f10,248(x2)
 150:	5f6d                	c.li	x30,-5
 152:	6e69                	c.lui	x28,0x1a
 154:	00727473          	csrrci	x8,0x7,4
 158:	74617473          	csrrci	x8,0x746,2
 15c:	72705f73          	csrrwi	x30,0x727,0
 160:	6e69                	c.lui	x28,0x1a
 162:	5f74                	c.lw	x13,124(x14)
 164:	6564                	c.flw	f9,76(x10)
 166:	425f0063          	beq	x30,x5,586 <stats_print_dec+0x76>
 16a:	006c6f6f          	jal	x30,c6170 <_stack_top+0x46170>
 16e:	6370                	c.flw	f12,68(x14)
 170:	726d                	c.lui	x4,0xffffb
 172:	5f00                	c.lw	x8,56(x14)
 174:	7364                	c.flw	f9,100(x14)
 176:	61685f6f          	jal	x30,8578c <_stack_top+0x578c>
 17a:	646e                	c.flwsp	f8,216(x2)
 17c:	656c                	c.flw	f11,76(x10)
 17e:	5f00                	c.lw	x8,56(x14)
	j start
 180:	657a6973          	csrrsi	x18,0x657,20
	la a0, no_exception_handler_msg
 184:	7000                	c.flw	f8,32(x8)
 186:	7274                	c.flw	f13,100(x12)
 188:	6f5f 7475 625f      	0x625f74756f5f
	jal ra, print_str
 18e:	5f00                	c.lw	x8,56(x14)
	j __no_irq_handler
 190:	6172                	c.flwsp	f2,28(x2)
 192:	646e                	c.flwsp	f8,216(x2)
	csrr t0, mcause
 194:	3834                	c.fld	f13,112(x8)
 196:	5f00                	c.lw	x8,56(x14)
	slli t0, t0, 1  /* shift off the high bit */
 198:	6d65                	c.lui	x26,0x19
 19a:	7265                	c.lui	x4,0xffff9
	srli t0, t0, 1
 19c:	636e6567          	0x636e6567
	li t1, 2
 1a0:	0079                	c.addi	x0,30
 1a2:	775f 7263 6f74      	0x6f747263775f
	li t1, 11
 1a8:	626d                	c.lui	x4,0x1b
 1aa:	735f 6174 6574      	0x65746174735f
	li t1, 3
 1b0:	4200                	c.lw	x8,0(x12)
 1b2:	6f6c                	c.flw	f11,92(x14)
	beq t0, t1, handle_ebreak
 1b4:	69536b63          	bltu	x6,x21,84a <twiddle_table+0x42>
	j handle_unknown
 1b8:	657a                	c.flwsp	f10,156(x2)
 1ba:	5f00                	c.lw	x8,56(x14)
	j fail_test
 1bc:	6e676973          	csrrsi	x18,0x6e6,14
	la a0, ebreak_msg
 1c0:	6c61                	c.lui	x24,0x18
 1c2:	625f 6675 5f00      	0x5f006675625f
	jal ra, print_str
 1c8:	626c                	c.flw	f11,68(x12)
 1ca:	7366                	c.flwsp	f6,120(x2)
	j fail_test
 1cc:	7a69                	c.lui	x20,0xffffa
 1ce:	0065                	c.addi	x0,25
	la a0, illegal_insn_msg
 1d0:	5f5f 6f6c 6163      	0x61636f6c5f5f
 1d6:	656c                	c.flw	f11,76(x10)
	jal ra, print_str
 1d8:	745f 5f00 626d      	0x626d5f00745f
	j fail_test
 1de:	7472                	c.flwsp	f8,60(x2)
	la a0, unknown_msg
 1e0:	5f63776f          	jal	x14,377d6 <__bss_end+0x367ce>
 1e4:	74617473          	csrrci	x8,0x746,2
	jal ra, print_str
 1e8:	0065                	c.addi	x0,25
 1ea:	775f 7463 6d6f      	0x6d6f7463775f
	jal ra, print_chr
 1f0:	5f62                	c.lwsp	x30,56(x2)
 1f2:	74617473          	csrrci	x8,0x746,2
	j fail_test
 1f6:	0065                	c.addi	x0,25
	li a0, 1
 1f8:	5f5f 6d74 735f      	0x735f6d745f5f
	sw a0, test_results, t1 /* signal failure */
 1fe:	6365                	c.lui	x6,0x19
 200:	5f00                	c.lw	x8,56(x14)
 202:	6275                	c.lui	x4,0x1d
	csrr a0, mepc
 204:	6675                	c.lui	x12,0x1d
 206:	5f00                	c.lw	x8,56(x14)
	addi a0, a0, 4
 208:	6162                	c.flwsp	f2,24(x2)
 20a:	64006573          	csrrsi	x10,0x640,0
	csrw mepc, a0
 20e:	6d75                	c.lui	x26,0x1d
	mret
 210:	796d                	c.lui	x18,0xffffb
 212:	5f00                	c.lw	x8,56(x14)
	wfi
 214:	745f 5f6d 6f68      	0x6f685f6d745f
	la a0, timeout_msg
 21a:	7275                	c.lui	x4,0xffffd
 21c:	5f00                	c.lw	x8,56(x14)
 21e:	735f 0066 6f5f      	0x6f5f0066735f
	li a0, 1
 224:	5f6e                	c.lwsp	x30,248(x2)
 226:	7865                	c.lui	x16,0xffff9
	sw a0, test_results, t1 /* signal failure */
 228:	7469                	c.lui	x8,0xffffa
 22a:	615f 6772 0073      	0x736772615f
	j fast_exit
 230:	635f 6f6f 696b      	0x696b6f6f635f
1:	auipc gp, %pcrel_hi(__global_pointer$)
 236:	0065                	c.addi	x0,25
	addi  gp, gp, %pcrel_lo(1b)
 238:	5f5f 6773 756c      	0x756c67735f5f
	lui sp,(1024*1024)>>12 
 23e:	0065                	c.addi	x0,25
    la a0, _data_lma_start  /* 源地址：Firmware 中的数据位置 */
 240:	6966                	c.flwsp	f18,88(x2)
 242:	6d72                	c.flwsp	f26,28(x2)
 244:	65726177          	0x65726177
    la a1, _data_start      /* 目的地址：RAM 中的起始位置 */
 248:	7466662f          	0x7466662f
 24c:	6d5f 6961 2e6e      	0x2e6e69616d5f
    la a2, _data_end        /* 目的地址：RAM 中的结束位置 */
 252:	665f0063          	beq	x30,x5,8b2 <app+0x62>
 256:	616c                	c.flw	f11,68(x10)
    beq a0, a1, copy_data_done
 258:	5f007367          	0x5f007367
    bge a1, a2, copy_data_done /* 如果当前地址 >= 结束地址，完成 */
 25c:	7369                	c.lui	x6,0xffffa
 25e:	635f 6178 5f00      	0x5f006178635f
    sw t0, 0(a1)               /* 写入 RAM 一个字 */
 264:	69647473          	csrrci	x8,0x696,8
    addi a0, a0, 4             /* 源指针 +4 */
 268:	006e                	0x6e
 26a:	625f 6b6c 6973      	0x69736b6c625f
    j copy_data_loop
 270:	657a                	c.flwsp	f10,156(x2)
 272:	6200                	c.flw	f8,0(x12)
	jal ra, init_stats
 274:	7361                	c.lui	x6,0xffff8
 276:	6465                	c.lui	x8,0x19
	li t0, 0
 278:	7369                	c.lui	x6,0xffffa
 27a:	0074                	c.addi4spn	x13,x2,12
	la t1, __bss_start
 27c:	635f 7476 7562      	0x75627476635f
 282:	0066                	0x66
	la t2, __bss_end
 284:	6f5f 6666 6573      	0x657366666f5f
 28a:	0074                	c.addi4spn	x13,x2,12
	bge t1, t2, loop_bss_done
 28c:	6d5f 7362 7472      	0x747273626d5f
	sw t0, 0(t1)
 292:	7363776f          	jal	x14,379c8 <__bss_end+0x369c0>
	addi t1, t1, 4
 296:	735f 6174 6574      	0x65746174735f
	addi x1, zero, 0
 29c:	5f00                	c.lw	x8,56(x14)
 29e:	626d                	c.lui	x4,0x1b
	addi x4, zero, 0
 2a0:	6c72                	c.flwsp	f24,28(x2)
 2a2:	6e65                	c.lui	x28,0x19
	addi x5, zero, 0
 2a4:	735f 6174 6574      	0x65746174735f
	addi x6, zero, 0
 2aa:	5f00                	c.lw	x8,56(x14)
	addi x7, zero, 0
 2ac:	6e66                	c.flwsp	f28,88(x2)
 2ae:	7261                	c.lui	x4,0xffff8
	addi x8, zero, 0
 2b0:	48007367          	0x48007367
	addi x9, zero, 0
 2b4:	49495f57          	pv.sra.sc.b	x30,x18,x20
	addi x10, zero, 0
 2b8:	6400                	c.flw	f8,8(x8)
 2ba:	7461                	c.lui	x8,0xffff8
	addi x11, zero, 0
 2bc:	5f61                	c.li	x30,-8
 2be:	0074756f          	jal	x10,47ac4 <__bss_end+0x46abc>
	addi x12, zero, 0
 2c2:	665f 736e 5f00      	0x5f00736e665f
	addi x14, zero, 0
 2c8:	6e676973          	csrrsi	x18,0x6e6,14
	addi x15, zero, 0
 2cc:	5f00                	c.lw	x8,56(x14)
 2ce:	6c66                	c.flwsp	f24,88(x2)
	addi x16, zero, 0
 2d0:	5f6b636f          	jal	x6,b68c6 <_stack_top+0x368c6>
	addi x17, zero, 0
 2d4:	0074                	c.addi4spn	x13,x2,12
 2d6:	735f 6474 7265      	0x72656474735f
	addi x19, zero, 0
 2dc:	0072                	0x72
 2de:	425f 6769 6e69      	0x6e696769425f
	addi x21, zero, 0
 2e4:	0074                	c.addi4spn	x13,x2,12
 2e6:	675f 6d61 616d      	0x616d6d61675f
	addi x23, zero, 0
 2ec:	735f 6769 676e      	0x676e6769735f
	addi x24, zero, 0
 2f2:	6d61                	c.lui	x26,0x18
	addi x25, zero, 0
 2f4:	5f00                	c.lw	x8,56(x14)
 2f6:	6572                	c.flwsp	f10,28(x2)
	addi x26, zero, 0
 2f8:	6461                	c.lui	x8,0x18
 2fa:	5f00                	c.lw	x8,56(x14)
	addi x27, zero, 0
 2fc:	745f 006d 5f5f      	0x5f5f006d745f
	addi x28, zero, 0
 302:	62686377          	0x62686377
	addi x29, zero, 0
 306:	5f00                	c.lw	x8,56(x14)
	addi x30, zero, 0
 308:	72736377          	0x72736377
	addi x31, zero, 0
 30c:	6f74                	c.flw	f13,92(x14)
 30e:	626d                	c.lui	x4,0x1b
	li      t0, 8
 310:	74735f73          	csrrwi	x30,0x747,6
	csrrs   zero, mstatus, t0
 314:	7461                	c.lui	x8,0xffff8
 316:	0065                	c.addi	x0,25
	li a0, timer_irq_mask
 318:	735f 6474 756f      	0x756f6474735f
	li a1, 0x8
 31e:	0074                	c.addi4spn	x13,x2,12
	sw a1,0(a0)
 320:	635f 7476 656c      	0x656c7476635f
	TEST(app)
 326:	006e                	0x6e
 328:	665f 6c69 0065      	0x656c69665f
 32e:	6e5f 6f69 7362      	0x73626f696e5f
 334:	6500                	c.flw	f8,8(x10)
 336:	6578                	c.flw	f14,76(x10)
 338:	79635f63          	bge	x6,x22,ad6 <app+0x286>
	lui gp, %hi(0xdeadbeef)
 33c:	73656c63          	bltu	x10,x22,a74 <app+0x224>
	addi gp, gp, %lo(0xdeadbeef)
 340:	5f00                	c.lw	x8,56(x14)
 342:	7461                	c.lui	x8,0xffff8
	addi tp, gp, 0
 344:	7865                	c.lui	x16,0xffff9
 346:	7469                	c.lui	x8,0xffffa
	lui a0,print_port>>12
 348:	0030                	c.addi4spn	x12,x2,8
 34a:	725f 7365 6c75      	0x6c757365725f
	addi a2,zero,'O'
 350:	5f74                	c.lw	x13,124(x14)
 352:	615f006b          	0x615f006b
	addi a3,zero,'N'
 356:	69746373          	csrrsi	x6,0x697,8
	addi a4,zero,'E'
 35a:	656d                	c.lui	x10,0x1b
	addi a5,zero,'\n'
 35c:	625f 6675 5f00      	0x5f006675625f
	sw a1,0(a0)
 362:	6572                	c.flwsp	f10,28(x2)
	sw a2,0(a0)
 364:	746c7573          	csrrci	x10,0x746,24
	sw a3,0(a0)
 368:	5f00                	c.lw	x8,56(x14)
 36a:	775f 6863 7700      	0x77006863775f
	sw a5,0(a0)
 370:	6e69                	c.lui	x28,0x1a
 372:	5f74                	c.lw	x13,124(x14)
	li a0, test_ret_val
 374:	0074                	c.addi4spn	x13,x2,12
 376:	6c5f 636f 006b      	0x6b636f6c5f
	lw a1, test_results
 37c:	7470                	c.flw	f12,108(x8)
 37e:	5f72                	c.lwsp	x30,60(x2)
	sw a1,0(a0)
 380:	665f0077          	0x665f0077
	wfi  /* we are done */
 384:	616c                	c.flw	f11,68(x10)
 386:	00327367          	0x327367
{
 38a:	7774                	c.flw	f13,108(x14)
 38c:	6469                	c.lui	x8,0x1a
 38e:	6c64                	c.flw	f9,92(x8)
 390:	5f65                	c.li	x30,-7
 392:	6174                	c.flw	f13,68(x10)
 394:	6c62                	c.flwsp	f24,24(x2)
 396:	0065                	c.addi	x0,25
 398:	5748                	c.lw	x10,44(x14)
 39a:	4c5f 5441 4e45      	0x4e4554414c5f
    *((volatile uint32_t *)OUTPORT) = ch;
 3a0:	5f005943          	0x5f005943
 3a4:	74697277          	0x74697277
}
 3a8:	0065                	c.addi	x0,25
 3aa:	5f5f 6d74 795f      	0x795f6d745f5f
 3b0:	6165                	c.addi16sp	x2,112
 3b2:	0072                	0x72
 3b4:	6e5f 616d 6c6c      	0x6c6c616d6e5f
{
 3ba:	6c00636f          	jal	x6,6a7a <__bss_end+0x5a72>
 3be:	20676e6f          	jal	x28,765c4 <__bss_end+0x755bc>
 3c2:	6f64                	c.flw	f9,92(x14)
 3c4:	6275                	c.lui	x4,0x1d
 3c6:	656c                	c.flw	f11,76(x10)
    while (*p != 0)
 3c8:	5f00                	c.lw	x8,56(x14)
 3ca:	656e                	c.flwsp	f10,216(x2)
        *((volatile uint32_t *)OUTPORT) = *(p++);
 3cc:	7478                	c.flw	f14,108(x8)
 3ce:	0066                	0x66
 3d0:	5f5f 6d74 6d5f      	0x6d5f6d745f5f
 3d6:	5f006e6f          	jal	x28,69c6 <__bss_end+0x59be>
 3da:	7461                	c.lui	x8,0xffff8
 3dc:	7865                	c.lui	x16,0xffff9
 3de:	7469                	c.lui	x8,0xffffa
 3e0:	7300                	c.flw	f8,32(x14)
 3e2:	6275                	c.lui	x4,0x1d
    while (*p != 0)
 3e4:	6174706f          	jal	x0,481fa <__bss_end+0x471f2>
 3e8:	6772                	c.flwsp	f14,28(x2)
 3ea:	5f00                	c.lw	x8,56(x14)
 3ec:	735f 6964 6964      	0x69646964735f
}
 3f2:	696e                	c.flwsp	f18,216(x2)
 3f4:	0074                	c.addi4spn	x13,x2,12
 3f6:	6f5f 6666 745f      	0x745f66666f5f
 3fc:	5f00                	c.lw	x8,56(x14)
 3fe:	7266                	c.flwsp	f4,120(x2)
{
 400:	6565                	c.lui	x10,0x19
 402:	696c                	c.flw	f11,84(x10)
 404:	5f007473          	csrrci	x8,0x5f0,0
 408:	4f4c                	c.lw	x11,28(x14)
 40a:	525f4b43          	fmadd.d	f22,f30,f5,f10,rmm
 40e:	4345                	c.li	x6,17
    char *p = buffer;
 410:	5255                	c.li	x4,-11
 412:	45564953          	0x45564953
 416:	545f 5f00 656e      	0x656e5f00545f
        *(p++) = val % 10;
 41c:	685f0077          	0x685f0077
 420:	655f 7272 6f6e      	0x6f6e7272655f
 426:	5f00                	c.lw	x8,56(x14)
 428:	745f 5f6d 6479      	0x64795f6d745f
 42e:	7961                	c.lui	x18,0xffff8
 430:	5f00                	c.lw	x8,56(x14)
 432:	735f 7562 0066      	0x667562735f
 438:	7470                	c.flw	f12,108(x8)
 43a:	5f72                	c.lwsp	x30,60(x2)
        val = val / 10;
 43c:	6e69                	c.lui	x28,0x1a
 43e:	615f 5f00 6f69      	0x6f695f00615f
 444:	7362                	c.flwsp	f6,56(x2)
 446:	5f00                	c.lw	x8,56(x14)
 448:	465f 4c49 0045      	0x454c49465f
    while (val || p == buffer) {
 44e:	6d5f 7362 6174      	0x617473626d5f
 454:	6574                	c.flw	f13,76(x10)
 456:	745f 5f00 735f      	0x735f5f00745f
 45c:	4946                	c.lwsp	x18,80(x2)
 45e:	454c                	c.lw	x11,12(x10)
    while (p != buffer) {
 460:	5f00                	c.lw	x8,56(x14)
 462:	626d                	c.lui	x4,0x1b
        *((volatile uint32_t *)OUTPORT) = '0' + *(--p);
 464:	74617473          	csrrci	x8,0x746,2
 468:	0065                	c.addi	x0,25
 46a:	725f 6e61 5f64      	0x5f646e61725f
 470:	656e                	c.flwsp	f10,216(x2)
 472:	7478                	c.flw	f14,108(x8)
 474:	5f00                	c.lw	x8,56(x14)
 476:	626d                	c.lui	x4,0x1b
 478:	656c                	c.flw	f11,76(x10)
 47a:	5f6e                	c.lwsp	x30,248(x2)
 47c:	74617473          	csrrci	x8,0x746,2
 480:	0065                	c.addi	x0,25
 482:	695f 636e 5f00      	0x5f00636e695f
    while (p != buffer) {
 488:	6e69                	c.lui	x28,0x1a
 48a:	0064                	c.addi4spn	x9,x2,12
 48c:	6c5f 636f 6c61      	0x6c61636f6c5f
}
 492:	0065                	c.addi	x0,25
 494:	5f5f 6c63 6165      	0x61656c635f5f
 49a:	756e                	c.flwsp	f10,248(x2)
 49c:	0070                	c.addi4spn	x12,x2,12
 49e:	755f 736e 6570      	0x6570736e755f
{
 4a4:	69666963          	bltu	x12,x22,b36 <app+0x2e6>
 4a8:	6465                	c.lui	x8,0x19
 4aa:	6c5f 636f 6c61      	0x6c61636f6c5f
 4b0:	5f65                	c.li	x30,-7
 4b2:	6e69                	c.lui	x28,0x1a
    for (int i = (4 * digits) - 4; i >= 0; i -= 4)
 4b4:	6f66                	c.flwsp	f30,88(x2)
 4b6:	5f00                	c.lw	x8,56(x14)
 4b8:	616d                	c.addi16sp	x2,240
 4ba:	7778                	c.flw	f14,108(x14)
 4bc:	7364                	c.flw	f9,100(x14)
 4be:	5f00                	c.lw	x8,56(x14)
 4c0:	6572                	c.flwsp	f10,28(x2)
 4c2:	6e65                	c.lui	x28,0x19
 4c4:	0074                	c.addi4spn	x13,x2,12
 4c6:	735f 6565 0064      	0x646565735f
        *((volatile uint32_t *)OUTPORT) = "0123456789ABCDEF"[(val >> i) % 16];
 4cc:	5f5f 6f63 6e75      	0x6e756f635f5f
 4d2:	0074                	c.addi4spn	x13,x2,12
 4d4:	5f5f 6176 756c      	0x756c61765f5f
 4da:	0065                	c.addi	x0,25
 4dc:	735f 6565 006b      	0x6b6565735f
 4e2:	665f 6f70 5f73      	0x5f736f70665f
 4e8:	0074                	c.addi4spn	x13,x2,12
 4ea:	6162                	c.flwsp	f2,24(x2)
    for (int i = (4 * digits) - 4; i >= 0; i -= 4)
 4ec:	6374                	c.flw	f13,68(x14)
 4ee:	5f68                	c.lw	x10,124(x14)
 4f0:	6e756f63          	bltu	x10,x7,bee <app+0x39e>
 4f4:	0074                	c.addi4spn	x13,x2,12
 4f6:	6174                	c.flw	f13,68(x10)
 4f8:	6c62                	c.flwsp	f24,24(x2)
 4fa:	5f65                	c.li	x30,-7
 4fc:	6e69                	c.lui	x28,0x1a
 4fe:	6564                	c.flw	f9,76(x10)
}
 500:	0078                	c.addi4spn	x14,x2,12
 502:	5f5f 6d74 6d5f      	0x6d5f6d745f5f
 508:	6e69                	c.lui	x28,0x1a
 50a:	5f00                	c.lw	x8,56(x14)
 50c:	756d                	c.lui	x10,0xffffb
 50e:	746c                	c.flw	f11,108(x8)
{
 510:	7000                	c.flw	f8,32(x8)
 512:	7274                	c.flw	f13,100(x12)
 514:	6f5f 7475 615f      	0x615f74756f5f
 51a:	5f00                	c.lw	x8,56(x14)
 51c:	74727473          	csrrci	x8,0x747,4
 520:	6c5f6b6f          	jal	x22,f73e4 <_stack_top+0x773e4>
 524:	7361                	c.lui	x6,0xffff8
 526:	0074                	c.addi4spn	x13,x2,12
 528:	665f 746e 7079      	0x7079746e665f
 52e:	7365                	c.lui	x6,0xffff9
    char *p = buffer;
 530:	7000                	c.flw	f8,32(x8)
 532:	7274                	c.flw	f13,100(x12)
 534:	695f 5f6e 0062      	0x625f6e695f
    while (val || digits > 0) {
 53a:	615f 6464 5f00      	0x5f006464615f
	if (val)
 540:	555f 6f4c 676e      	0x676e6f4c555f
	    *(p++) = '0' + val % 10;
 546:	5f00                	c.lw	x8,56(x14)
 548:	64746567          	0x64746567
 54c:	7461                	c.lui	x8,0xffff8
 54e:	5f65                	c.li	x30,-7
 550:	7265                	c.lui	x4,0xffff9
 552:	0072                	0x72
 554:	675f 6f6c 6162      	0x61626f6c675f
 55a:	5f6c                	c.lw	x11,124(x14)
 55c:	6d69                	c.lui	x26,0x1a
 55e:	7570                	c.flw	f12,108(x10)
 560:	6572                	c.flwsp	f10,28(x2)
 562:	705f 7274 5f00      	0x5f007274705f
 568:	6e75                	c.lui	x28,0x1d
 56a:	7375                	c.lui	x6,0xffffd
 56c:	6465                	c.lui	x8,0x19
 56e:	725f 6e61 0064      	0x646e61725f
	    *(p++) = zero_pad ? '0' : ' ';
 574:	775f 7364 5f00      	0x5f007364775f
 57a:	745f 5f6d 6477      	0x64775f6d745f
 580:	7961                	c.lui	x18,0xffff8
 582:	5f00                	c.lw	x8,56(x14)
 584:	65756c67          	0x65756c67
 588:	5f00                	c.lw	x8,56(x14)
 58a:	7a697373          	csrrci	x6,0x7a6,18
 58e:	5f65                	c.li	x30,-7
 590:	0074                	c.addi4spn	x13,x2,12
 592:	6c5f 3436 5f61      	0x5f6134366c5f
	val = val / 10;
 598:	7562                	c.flwsp	f10,56(x2)
 59a:	0066                	0x66
 59c:	735f 6769 665f      	0x665f6769735f
 5a2:	6e75                	c.lui	x28,0x1d
	digits--;
 5a4:	6e690063          	beq	x18,x6,c84 <ecall_msg+0xd>
 5a8:	7469                	c.lui	x8,0xffffa
 5aa:	645f 7461 0061      	0x617461645f
    while (val || digits > 0) {
 5b0:	6e5f 7562 0066      	0x6675626e5f
 5b6:	755f 756e 6573      	0x6573756e755f
 5bc:	0064                	c.addi4spn	x9,x2,12
 5be:	5f5f 6d74 695f      	0x695f6d745f5f
	if (p[-1] == ' ' && p[-2] == ' ')
 5c4:	74736473          	csrrsi	x8,0x747,6
 5c8:	5f00                	c.lw	x8,56(x14)
 5ca:	6f6c                	c.flw	f11,92(x14)
 5cc:	746c6163          	bltu	x24,x6,d0e <riscv_tests_msg+0x11>
 5d0:	6d69                	c.lui	x26,0x1a
 5d2:	5f65                	c.li	x30,-7
 5d4:	7562                	c.flwsp	f10,56(x2)
 5d6:	0066                	0x66
 5d8:	635f 6f6c 6573      	0x65736f6c635f
 5de:	5f00                	c.lw	x8,56(x14)
 5e0:	3472                	c.fldsp	f8,312(x2)
 5e2:	0038                	c.addi4spn	x14,x2,8
 5e4:	6d5f 7462 776f      	0x776f74626d5f
 5ea:	74735f63          	bge	x6,x7,d48 <timeout_msg+0x16>
	    p[-1] = '.';
 5ee:	7461                	c.lui	x8,0xffff8
 5f0:	0065                	c.addi	x0,25
 5f2:	705f 7335 5f00      	0x5f007335705f
 5f8:	745f 5f6d 646d      	0x646d5f6d745f
	print_chr(*(--p));
 5fe:	7961                	c.lui	x18,0xffff8
	...
